
build/main:     file format elf64-littleriscv


Disassembly of section .text:

0000000050201000 <_start>:
    50201000:	10401073          	csrw	sie,zero
    50201004:	14401073          	csrw	sip,zero
    50201008:	00001297          	auipc	t0,0x1
    5020100c:	4b828293          	addi	t0,t0,1208 # 502024c0 <history_current>
    50201010:	0000a317          	auipc	t1,0xa
    50201014:	d7830313          	addi	t1,t1,-648 # 5020ad88 <__BSS_END__>

0000000050201018 <bss_clear_loop>:
    50201018:	0002b023          	sd	zero,0(t0)
    5020101c:	02a1                	addi	t0,t0,8
    5020101e:	fe62cde3          	blt	t0,t1,50201018 <bss_clear_loop>
    50201022:	50500137          	lui	sp,0x50500
    50201026:	00c000ef          	jal	50201032 <main>

000000005020102a <loop>:
    5020102a:	10500073          	wfi
    5020102e:	bff5                	j	5020102a <loop>
    50201030:	0001                	nop

0000000050201032 <main>:
    50201032:	7135                	addi	sp,sp,-160
    50201034:	e922                	sd	s0,144(sp)
    50201036:	f8d2                	sd	s4,112(sp)
    50201038:	00002417          	auipc	s0,0x2
    5020103c:	9d840413          	addi	s0,s0,-1576 # 50202a10 <buf>
    50201040:	01051a1b          	slliw	s4,a0,0x10
    50201044:	ed06                	sd	ra,152(sp)
    50201046:	e526                	sd	s1,136(sp)
    50201048:	e14a                	sd	s2,128(sp)
    5020104a:	fcce                	sd	s3,120(sp)
    5020104c:	f4d6                	sd	s5,104(sp)
    5020104e:	f0da                	sd	s6,96(sp)
    50201050:	ecde                	sd	s7,88(sp)
    50201052:	e8e2                	sd	s8,80(sp)
    50201054:	e4e6                	sd	s9,72(sp)
    50201056:	e0ea                	sd	s10,64(sp)
    50201058:	fc6e                	sd	s11,56(sp)
    5020105a:	410a5a1b          	sraiw	s4,s4,0x10
    5020105e:	87a2                	mv	a5,s0
    50201060:	00002697          	auipc	a3,0x2
    50201064:	9e268693          	addi	a3,a3,-1566 # 50202a42 <buf+0x32>
    50201068:	a019                	j	5020106e <main+0x3c>
    5020106a:	6cf68f63          	beq	a3,a5,50201748 <main+0x716>
    5020106e:	0007c703          	lbu	a4,0(a5)
    50201072:	0785                	addi	a5,a5,1
    50201074:	db7d                	beqz	a4,5020106a <main+0x38>
    50201076:	4481                	li	s1,0
    50201078:	52000537          	lui	a0,0x52000
    5020107c:	00001e97          	auipc	t4,0x1
    50201080:	9c8e8e93          	addi	t4,t4,-1592 # 50201a44 <port_write>
    50201084:	00001e17          	auipc	t3,0x1
    50201088:	9ace0e13          	addi	t3,t3,-1620 # 50201a30 <port_write_ch>
    5020108c:	00001317          	auipc	t1,0x1
    50201090:	9cc30313          	addi	t1,t1,-1588 # 50201a58 <port_read_ch>
    50201094:	00001897          	auipc	a7,0x1
    50201098:	9e688893          	addi	a7,a7,-1562 # 50201a7a <sd_read>
    5020109c:	00001817          	auipc	a6,0x1
    502010a0:	a0680813          	addi	a6,a6,-1530 # 50201aa2 <sd_write>
    502010a4:	f1d53023          	sd	t4,-256(a0) # 51ffff00 <__BSS_END__+0x1df5178>
    502010a8:	f1c53423          	sd	t3,-248(a0)
    502010ac:	f0653823          	sd	t1,-240(a0)
    502010b0:	f1153c23          	sd	a7,-232(a0)
    502010b4:	f3053023          	sd	a6,-224(a0)
    502010b8:	4741                	li	a4,16
    502010ba:	01474563          	blt	a4,s4,502010c4 <main+0x92>
    502010be:	03405f63          	blez	s4,502010fc <main+0xca>
    502010c2:	8752                	mv	a4,s4
    502010c4:	00171793          	slli	a5,a4,0x1
    502010c8:	97ba                	add	a5,a5,a4
    502010ca:	0792                	slli	a5,a5,0x4
    502010cc:	0105961b          	slliw	a2,a1,0x10
    502010d0:	1f07f593          	andi	a1,a5,496
    502010d4:	00b035b3          	snez	a1,a1
    502010d8:	83a5                	srli	a5,a5,0x9
    502010da:	4106561b          	sraiw	a2,a2,0x10
    502010de:	9dbd                	addw	a1,a1,a5
    502010e0:	00002517          	auipc	a0,0x2
    502010e4:	96850513          	addi	a0,a0,-1688 # 50202a48 <tasks>
    502010e8:	1602                	slli	a2,a2,0x20
    502010ea:	1582                	slli	a1,a1,0x20
    502010ec:	1502                	slli	a0,a0,0x20
    502010ee:	9201                	srli	a2,a2,0x20
    502010f0:	9181                	srli	a1,a1,0x20
    502010f2:	9101                	srli	a0,a0,0x20
    502010f4:	4701                	li	a4,0
    502010f6:	4681                	li	a3,0
    502010f8:	183000ef          	jal	50201a7a <sd_read>
    502010fc:	00001797          	auipc	a5,0x1
    50201100:	09478793          	addi	a5,a5,148 # 50202190 <strcat+0x474>
    50201104:	50200737          	lui	a4,0x50200
    50201108:	1f671583          	lh	a1,502(a4) # 502001f6 <_start-0xe0a>
    5020110c:	6390                	ld	a2,0(a5)
    5020110e:	6794                	ld	a3,8(a5)
    50201110:	6b98                	ld	a4,16(a5)
    50201112:	00001797          	auipc	a5,0x1
    50201116:	0967d783          	lhu	a5,150(a5) # 502021a8 <strcat+0x48c>
    5020111a:	00001517          	auipc	a0,0x1
    5020111e:	3ab51723          	sh	a1,942(a0) # 502024c8 <batch_file_start_sector>
    50201122:	e832                	sd	a2,16(sp)
    50201124:	02f11423          	sh	a5,40(sp) # 50500028 <__BSS_END__+0x2f52a0>
    50201128:	ec36                	sd	a3,24(sp)
    5020112a:	f03a                	sd	a4,32(sp)
    5020112c:	06600793          	li	a5,102
    50201130:	c099                	beqz	s1,50201136 <main+0x104>
    50201132:	07400793          	li	a5,116
    50201136:	00001717          	auipc	a4,0x1
    5020113a:	38672703          	lw	a4,902(a4) # 502024bc <version>
    5020113e:	00f10423          	sb	a5,8(sp)
    50201142:	00002597          	auipc	a1,0x2
    50201146:	8e858593          	addi	a1,a1,-1816 # 50202a2a <buf+0x1a>
    5020114a:	0307071b          	addiw	a4,a4,48
    5020114e:	081c                	addi	a5,sp,16
    50201150:	00e104a3          	sb	a4,9(sp)
    50201154:	4681                	li	a3,0
    50201156:	05f00613          	li	a2,95
    5020115a:	0007c703          	lbu	a4,0(a5)
    5020115e:	0785                	addi	a5,a5,1
    50201160:	00e40023          	sb	a4,0(s0)
    50201164:	00c71963          	bne	a4,a2,50201176 <main+0x144>
    50201168:	00268733          	add	a4,a3,sp
    5020116c:	00874703          	lbu	a4,8(a4)
    50201170:	2685                	addiw	a3,a3,1
    50201172:	00e40023          	sb	a4,0(s0)
    50201176:	0405                	addi	s0,s0,1
    50201178:	feb411e3          	bne	s0,a1,5020115a <main+0x128>
    5020117c:	00001517          	auipc	a0,0x1
    50201180:	bdc50513          	addi	a0,a0,-1060 # 50201d58 <strcat+0x3c>
    50201184:	5c8000ef          	jal	5020174c <bios_putstr>
    50201188:	00002517          	auipc	a0,0x2
    5020118c:	88850513          	addi	a0,a0,-1912 # 50202a10 <buf>
    50201190:	5bc000ef          	jal	5020174c <bios_putstr>
    50201194:	fffa079b          	addiw	a5,s4,-1
    50201198:	1782                	slli	a5,a5,0x20
    5020119a:	9381                	srli	a5,a5,0x20
    5020119c:	00179993          	slli	s3,a5,0x1
    502011a0:	99be                	add	s3,s3,a5
    502011a2:	00001a97          	auipc	s5,0x1
    502011a6:	46ea8a93          	addi	s5,s5,1134 # 50202610 <batch_buffer>
    502011aa:	1a82                	slli	s5,s5,0x20
    502011ac:	0992                	slli	s3,s3,0x4
    502011ae:	00002797          	auipc	a5,0x2
    502011b2:	8ca78793          	addi	a5,a5,-1846 # 50202a78 <tasks+0x30>
    502011b6:	52000437          	lui	s0,0x52000
    502011ba:	666664b7          	lui	s1,0x66666
    502011be:	020ada93          	srli	s5,s5,0x20
    502011c2:	99be                	add	s3,s3,a5
    502011c4:	f0040413          	addi	s0,s0,-256 # 51ffff00 <__BSS_END__+0x1df5178>
    502011c8:	66748493          	addi	s1,s1,1639 # 66666667 <__BSS_END__+0x1645b8df>
    502011cc:	00001917          	auipc	s2,0x1
    502011d0:	30490913          	addi	s2,s2,772 # 502024d0 <history_buffer>
    502011d4:	601c                	ld	a5,0(s0)
    502011d6:	4701                	li	a4,0
    502011d8:	4681                	li	a3,0
    502011da:	4601                	li	a2,0
    502011dc:	4581                	li	a1,0
    502011de:	00001517          	auipc	a0,0x1
    502011e2:	b8a50513          	addi	a0,a0,-1142 # 50201d68 <strcat+0x4c>
    502011e6:	9782                	jalr	a5
    502011e8:	00001797          	auipc	a5,0x1
    502011ec:	2dc7a783          	lw	a5,732(a5) # 502024c4 <history_count>
    502011f0:	02000593          	li	a1,32
    502011f4:	00002517          	auipc	a0,0x2
    502011f8:	b5450513          	addi	a0,a0,-1196 # 50202d48 <user_buffer>
    502011fc:	00001717          	auipc	a4,0x1
    50201200:	2cf72223          	sw	a5,708(a4) # 502024c0 <history_current>
    50201204:	55c000ef          	jal	50201760 <get_str>
    50201208:	00002797          	auipc	a5,0x2
    5020120c:	b407c783          	lbu	a5,-1216(a5) # 50202d48 <user_buffer>
    50201210:	d3f1                	beqz	a5,502011d4 <main+0x1a2>
    50201212:	00001517          	auipc	a0,0x1
    50201216:	2b252503          	lw	a0,690(a0) # 502024c4 <history_count>
    5020121a:	02a05e63          	blez	a0,50201256 <main+0x224>
    5020121e:	fff5059b          	addiw	a1,a0,-1
    50201222:	029587b3          	mul	a5,a1,s1
    50201226:	41f5d71b          	sraiw	a4,a1,0x1f
    5020122a:	00002517          	auipc	a0,0x2
    5020122e:	b1e50513          	addi	a0,a0,-1250 # 50202d48 <user_buffer>
    50201232:	9789                	srai	a5,a5,0x22
    50201234:	9f99                	subw	a5,a5,a4
    50201236:	0027971b          	slliw	a4,a5,0x2
    5020123a:	9fb9                	addw	a5,a5,a4
    5020123c:	0017979b          	slliw	a5,a5,0x1
    50201240:	9d9d                	subw	a1,a1,a5
    50201242:	0596                	slli	a1,a1,0x5
    50201244:	95ca                	add	a1,a1,s2
    50201246:	20b000ef          	jal	50201c50 <strcmp>
    5020124a:	14050f63          	beqz	a0,502013a8 <main+0x376>
    5020124e:	00001517          	auipc	a0,0x1
    50201252:	27652503          	lw	a0,630(a0) # 502024c4 <history_count>
    50201256:	029507b3          	mul	a5,a0,s1
    5020125a:	41f5571b          	sraiw	a4,a0,0x1f
    5020125e:	00002597          	auipc	a1,0x2
    50201262:	aea58593          	addi	a1,a1,-1302 # 50202d48 <user_buffer>
    50201266:	9789                	srai	a5,a5,0x22
    50201268:	9f99                	subw	a5,a5,a4
    5020126a:	0027971b          	slliw	a4,a5,0x2
    5020126e:	9fb9                	addw	a5,a5,a4
    50201270:	0017979b          	slliw	a5,a5,0x1
    50201274:	9d1d                	subw	a0,a0,a5
    50201276:	0516                	slli	a0,a0,0x5
    50201278:	954a                	add	a0,a0,s2
    5020127a:	23d000ef          	jal	50201cb6 <strcpy>
    5020127e:	00001797          	auipc	a5,0x1
    50201282:	2467a783          	lw	a5,582(a5) # 502024c4 <history_count>
    50201286:	00002717          	auipc	a4,0x2
    5020128a:	ac274703          	lbu	a4,-1342(a4) # 50202d48 <user_buffer>
    5020128e:	2785                	addiw	a5,a5,1
    50201290:	00001697          	auipc	a3,0x1
    50201294:	22f6aa23          	sw	a5,564(a3) # 502024c4 <history_count>
    50201298:	00001697          	auipc	a3,0x1
    5020129c:	22f6a423          	sw	a5,552(a3) # 502024c0 <history_current>
    502012a0:	db15                	beqz	a4,502011d4 <main+0x1a2>
    502012a2:	00001597          	auipc	a1,0x1
    502012a6:	be658593          	addi	a1,a1,-1050 # 50201e88 <strcat+0x16c>
    502012aa:	00002517          	auipc	a0,0x2
    502012ae:	a9e50513          	addi	a0,a0,-1378 # 50202d48 <user_buffer>
    502012b2:	19f000ef          	jal	50201c50 <strcmp>
    502012b6:	0e050e63          	beqz	a0,502013b2 <main+0x380>
    502012ba:	00001597          	auipc	a1,0x1
    502012be:	bd658593          	addi	a1,a1,-1066 # 50201e90 <strcat+0x174>
    502012c2:	00002517          	auipc	a0,0x2
    502012c6:	a8650513          	addi	a0,a0,-1402 # 50202d48 <user_buffer>
    502012ca:	187000ef          	jal	50201c50 <strcmp>
    502012ce:	22050263          	beqz	a0,502014f2 <main+0x4c0>
    502012d2:	00001597          	auipc	a1,0x1
    502012d6:	be658593          	addi	a1,a1,-1050 # 50201eb8 <strcat+0x19c>
    502012da:	00002517          	auipc	a0,0x2
    502012de:	a6e50513          	addi	a0,a0,-1426 # 50202d48 <user_buffer>
    502012e2:	16f000ef          	jal	50201c50 <strcmp>
    502012e6:	14051363          	bnez	a0,5020142c <main+0x3fa>
    502012ea:	601c                	ld	a5,0(s0)
    502012ec:	4701                	li	a4,0
    502012ee:	4681                	li	a3,0
    502012f0:	4601                	li	a2,0
    502012f2:	4581                	li	a1,0
    502012f4:	00001517          	auipc	a0,0x1
    502012f8:	bcc50513          	addi	a0,a0,-1076 # 50201ec0 <strcat+0x1a4>
    502012fc:	9782                	jalr	a5
    502012fe:	02000593          	li	a1,32
    50201302:	00002517          	auipc	a0,0x2
    50201306:	a6650513          	addi	a0,a0,-1434 # 50202d68 <name_buffer>
    5020130a:	456000ef          	jal	50201760 <get_str>
    5020130e:	00002797          	auipc	a5,0x2
    50201312:	a5a7c783          	lbu	a5,-1446(a5) # 50202d68 <name_buffer>
    50201316:	ea078fe3          	beqz	a5,502011d4 <main+0x1a2>
    5020131a:	00002517          	auipc	a0,0x2
    5020131e:	a4e50513          	addi	a0,a0,-1458 # 50202d68 <name_buffer>
    50201322:	7a8000ef          	jal	50201aca <load_task_img>
    50201326:	8b2a                	mv	s6,a0
    50201328:	ea0506e3          	beqz	a0,502011d4 <main+0x1a2>
    5020132c:	601c                	ld	a5,0(s0)
    5020132e:	4701                	li	a4,0
    50201330:	4681                	li	a3,0
    50201332:	4601                	li	a2,0
    50201334:	4581                	li	a1,0
    50201336:	00001517          	auipc	a0,0x1
    5020133a:	baa50513          	addi	a0,a0,-1110 # 50201ee0 <strcat+0x1c4>
    5020133e:	9782                	jalr	a5
    50201340:	601c                	ld	a5,0(s0)
    50201342:	4701                	li	a4,0
    50201344:	4681                	li	a3,0
    50201346:	4601                	li	a2,0
    50201348:	4581                	li	a1,0
    5020134a:	00002517          	auipc	a0,0x2
    5020134e:	a1e50513          	addi	a0,a0,-1506 # 50202d68 <name_buffer>
    50201352:	9782                	jalr	a5
    50201354:	601c                	ld	a5,0(s0)
    50201356:	4701                	li	a4,0
    50201358:	4681                	li	a3,0
    5020135a:	4601                	li	a2,0
    5020135c:	4581                	li	a1,0
    5020135e:	00001517          	auipc	a0,0x1
    50201362:	baa50513          	addi	a0,a0,-1110 # 50201f08 <strcat+0x1ec>
    50201366:	9782                	jalr	a5
    50201368:	9b02                	jalr	s6
    5020136a:	601c                	ld	a5,0(s0)
    5020136c:	4701                	li	a4,0
    5020136e:	4681                	li	a3,0
    50201370:	4601                	li	a2,0
    50201372:	4581                	li	a1,0
    50201374:	00001517          	auipc	a0,0x1
    50201378:	ba450513          	addi	a0,a0,-1116 # 50201f18 <strcat+0x1fc>
    5020137c:	9782                	jalr	a5
    5020137e:	601c                	ld	a5,0(s0)
    50201380:	4701                	li	a4,0
    50201382:	4681                	li	a3,0
    50201384:	4601                	li	a2,0
    50201386:	4581                	li	a1,0
    50201388:	00002517          	auipc	a0,0x2
    5020138c:	9e050513          	addi	a0,a0,-1568 # 50202d68 <name_buffer>
    50201390:	9782                	jalr	a5
    50201392:	601c                	ld	a5,0(s0)
    50201394:	4701                	li	a4,0
    50201396:	4681                	li	a3,0
    50201398:	4601                	li	a2,0
    5020139a:	4581                	li	a1,0
    5020139c:	00001517          	auipc	a0,0x1
    502013a0:	b9450513          	addi	a0,a0,-1132 # 50201f30 <strcat+0x214>
    502013a4:	9782                	jalr	a5
    502013a6:	b53d                	j	502011d4 <main+0x1a2>
    502013a8:	00002717          	auipc	a4,0x2
    502013ac:	9a074703          	lbu	a4,-1632(a4) # 50202d48 <user_buffer>
    502013b0:	bdc5                	j	502012a0 <main+0x26e>
    502013b2:	601c                	ld	a5,0(s0)
    502013b4:	4701                	li	a4,0
    502013b6:	4681                	li	a3,0
    502013b8:	4601                	li	a2,0
    502013ba:	4581                	li	a1,0
    502013bc:	00001517          	auipc	a0,0x1
    502013c0:	ab450513          	addi	a0,a0,-1356 # 50201e70 <strcat+0x154>
    502013c4:	9782                	jalr	a5
    502013c6:	601c                	ld	a5,0(s0)
    502013c8:	4701                	li	a4,0
    502013ca:	4681                	li	a3,0
    502013cc:	4601                	li	a2,0
    502013ce:	4581                	li	a1,0
    502013d0:	00001517          	auipc	a0,0x1
    502013d4:	a7850513          	addi	a0,a0,-1416 # 50201e48 <strcat+0x12c>
    502013d8:	9782                	jalr	a5
    502013da:	601c                	ld	a5,0(s0)
    502013dc:	4701                	li	a4,0
    502013de:	4681                	li	a3,0
    502013e0:	4601                	li	a2,0
    502013e2:	4581                	li	a1,0
    502013e4:	00001517          	auipc	a0,0x1
    502013e8:	a3c50513          	addi	a0,a0,-1476 # 50201e20 <strcat+0x104>
    502013ec:	9782                	jalr	a5
    502013ee:	601c                	ld	a5,0(s0)
    502013f0:	4701                	li	a4,0
    502013f2:	4681                	li	a3,0
    502013f4:	4601                	li	a2,0
    502013f6:	4581                	li	a1,0
    502013f8:	00001517          	auipc	a0,0x1
    502013fc:	9f050513          	addi	a0,a0,-1552 # 50201de8 <strcat+0xcc>
    50201400:	9782                	jalr	a5
    50201402:	601c                	ld	a5,0(s0)
    50201404:	4701                	li	a4,0
    50201406:	4681                	li	a3,0
    50201408:	4601                	li	a2,0
    5020140a:	4581                	li	a1,0
    5020140c:	00001517          	auipc	a0,0x1
    50201410:	9b450513          	addi	a0,a0,-1612 # 50201dc0 <strcat+0xa4>
    50201414:	9782                	jalr	a5
    50201416:	601c                	ld	a5,0(s0)
    50201418:	4701                	li	a4,0
    5020141a:	4681                	li	a3,0
    5020141c:	4601                	li	a2,0
    5020141e:	4581                	li	a1,0
    50201420:	00001517          	auipc	a0,0x1
    50201424:	97850513          	addi	a0,a0,-1672 # 50201d98 <strcat+0x7c>
    50201428:	9782                	jalr	a5
    5020142a:	b36d                	j	502011d4 <main+0x1a2>
    5020142c:	00001597          	auipc	a1,0x1
    50201430:	b1c58593          	addi	a1,a1,-1252 # 50201f48 <strcat+0x22c>
    50201434:	00002517          	auipc	a0,0x2
    50201438:	91450513          	addi	a0,a0,-1772 # 50202d48 <user_buffer>
    5020143c:	015000ef          	jal	50201c50 <strcmp>
    50201440:	e521                	bnez	a0,50201488 <main+0x456>
    50201442:	601c                	ld	a5,0(s0)
    50201444:	4701                	li	a4,0
    50201446:	4681                	li	a3,0
    50201448:	4601                	li	a2,0
    5020144a:	4581                	li	a1,0
    5020144c:	00001517          	auipc	a0,0x1
    50201450:	b0450513          	addi	a0,a0,-1276 # 50201f50 <strcat+0x234>
    50201454:	9782                	jalr	a5
    50201456:	20000593          	li	a1,512
    5020145a:	00001517          	auipc	a0,0x1
    5020145e:	3b650513          	addi	a0,a0,950 # 50202810 <task_list_buffer>
    50201462:	2fe000ef          	jal	50201760 <get_str>
    50201466:	00001797          	auipc	a5,0x1
    5020146a:	3aa7c783          	lbu	a5,938(a5) # 50202810 <task_list_buffer>
    5020146e:	1a079863          	bnez	a5,5020161e <main+0x5ec>
    50201472:	601c                	ld	a5,0(s0)
    50201474:	4701                	li	a4,0
    50201476:	4681                	li	a3,0
    50201478:	4601                	li	a2,0
    5020147a:	4581                	li	a1,0
    5020147c:	00001517          	auipc	a0,0x1
    50201480:	b0450513          	addi	a0,a0,-1276 # 50201f80 <strcat+0x264>
    50201484:	9782                	jalr	a5
    50201486:	b3b9                	j	502011d4 <main+0x1a2>
    50201488:	00001597          	auipc	a1,0x1
    5020148c:	bc058593          	addi	a1,a1,-1088 # 50202048 <strcat+0x32c>
    50201490:	00002517          	auipc	a0,0x2
    50201494:	8b850513          	addi	a0,a0,-1864 # 50202d48 <user_buffer>
    50201498:	7b8000ef          	jal	50201c50 <strcmp>
    5020149c:	601c                	ld	a5,0(s0)
    5020149e:	4701                	li	a4,0
    502014a0:	4681                	li	a3,0
    502014a2:	4601                	li	a2,0
    502014a4:	4581                	li	a1,0
    502014a6:	e555                	bnez	a0,50201552 <main+0x520>
    502014a8:	00001517          	auipc	a0,0x1
    502014ac:	bb050513          	addi	a0,a0,-1104 # 50202058 <strcat+0x33c>
    502014b0:	9782                	jalr	a5
    502014b2:	00001617          	auipc	a2,0x1
    502014b6:	01661603          	lh	a2,22(a2) # 502024c8 <batch_file_start_sector>
    502014ba:	520007b7          	lui	a5,0x52000
    502014be:	f1878793          	addi	a5,a5,-232 # 51ffff18 <__BSS_END__+0x1df5190>
    502014c2:	639c                	ld	a5,0(a5)
    502014c4:	1602                	slli	a2,a2,0x20
    502014c6:	9201                	srli	a2,a2,0x20
    502014c8:	8556                	mv	a0,s5
    502014ca:	4701                	li	a4,0
    502014cc:	4681                	li	a3,0
    502014ce:	4585                	li	a1,1
    502014d0:	9782                	jalr	a5
    502014d2:	00001797          	auipc	a5,0x1
    502014d6:	13e7c783          	lbu	a5,318(a5) # 50202610 <batch_buffer>
    502014da:	e3d1                	bnez	a5,5020155e <main+0x52c>
    502014dc:	601c                	ld	a5,0(s0)
    502014de:	4701                	li	a4,0
    502014e0:	4681                	li	a3,0
    502014e2:	4601                	li	a2,0
    502014e4:	4581                	li	a1,0
    502014e6:	00001517          	auipc	a0,0x1
    502014ea:	b9a50513          	addi	a0,a0,-1126 # 50202080 <strcat+0x364>
    502014ee:	9782                	jalr	a5
    502014f0:	b1d5                	j	502011d4 <main+0x1a2>
    502014f2:	601c                	ld	a5,0(s0)
    502014f4:	4701                	li	a4,0
    502014f6:	4681                	li	a3,0
    502014f8:	4601                	li	a2,0
    502014fa:	4581                	li	a1,0
    502014fc:	00001517          	auipc	a0,0x1
    50201500:	99c50513          	addi	a0,a0,-1636 # 50201e98 <strcat+0x17c>
    50201504:	9782                	jalr	a5
    50201506:	cd4057e3          	blez	s4,502011d4 <main+0x1a2>
    5020150a:	00001b17          	auipc	s6,0x1
    5020150e:	53eb0b13          	addi	s6,s6,1342 # 50202a48 <tasks>
    50201512:	601c                	ld	a5,0(s0)
    50201514:	4701                	li	a4,0
    50201516:	4681                	li	a3,0
    50201518:	4601                	li	a2,0
    5020151a:	4581                	li	a1,0
    5020151c:	00001517          	auipc	a0,0x1
    50201520:	99450513          	addi	a0,a0,-1644 # 50201eb0 <strcat+0x194>
    50201524:	9782                	jalr	a5
    50201526:	601c                	ld	a5,0(s0)
    50201528:	855a                	mv	a0,s6
    5020152a:	4701                	li	a4,0
    5020152c:	4681                	li	a3,0
    5020152e:	4601                	li	a2,0
    50201530:	4581                	li	a1,0
    50201532:	9782                	jalr	a5
    50201534:	601c                	ld	a5,0(s0)
    50201536:	4701                	li	a4,0
    50201538:	4681                	li	a3,0
    5020153a:	4601                	li	a2,0
    5020153c:	4581                	li	a1,0
    5020153e:	00001517          	auipc	a0,0x1
    50201542:	81250513          	addi	a0,a0,-2030 # 50201d50 <strcat+0x34>
    50201546:	030b0b13          	addi	s6,s6,48
    5020154a:	9782                	jalr	a5
    5020154c:	fd3b13e3          	bne	s6,s3,50201512 <main+0x4e0>
    50201550:	b151                	j	502011d4 <main+0x1a2>
    50201552:	00001517          	auipc	a0,0x1
    50201556:	c0650513          	addi	a0,a0,-1018 # 50202158 <strcat+0x43c>
    5020155a:	9782                	jalr	a5
    5020155c:	b9a5                	j	502011d4 <main+0x1a2>
    5020155e:	00001b17          	auipc	s6,0x1
    50201562:	0b2b0b13          	addi	s6,s6,178 # 50202610 <batch_buffer>
    50201566:	a885                	j	502015d6 <main+0x5a4>
    50201568:	601c                	ld	a5,0(s0)
    5020156a:	9782                	jalr	a5
    5020156c:	601c                	ld	a5,0(s0)
    5020156e:	855a                	mv	a0,s6
    50201570:	4701                	li	a4,0
    50201572:	4681                	li	a3,0
    50201574:	4601                	li	a2,0
    50201576:	4581                	li	a1,0
    50201578:	9782                	jalr	a5
    5020157a:	601c                	ld	a5,0(s0)
    5020157c:	4701                	li	a4,0
    5020157e:	4681                	li	a3,0
    50201580:	4601                	li	a2,0
    50201582:	4581                	li	a1,0
    50201584:	00001517          	auipc	a0,0x1
    50201588:	b4450513          	addi	a0,a0,-1212 # 502020c8 <strcat+0x3ac>
    5020158c:	9782                	jalr	a5
    5020158e:	9b82                	jalr	s7
    50201590:	601c                	ld	a5,0(s0)
    50201592:	4701                	li	a4,0
    50201594:	4681                	li	a3,0
    50201596:	4601                	li	a2,0
    50201598:	4581                	li	a1,0
    5020159a:	00001517          	auipc	a0,0x1
    5020159e:	b3650513          	addi	a0,a0,-1226 # 502020d0 <strcat+0x3b4>
    502015a2:	9782                	jalr	a5
    502015a4:	601c                	ld	a5,0(s0)
    502015a6:	855a                	mv	a0,s6
    502015a8:	4701                	li	a4,0
    502015aa:	4681                	li	a3,0
    502015ac:	4601                	li	a2,0
    502015ae:	4581                	li	a1,0
    502015b0:	9782                	jalr	a5
    502015b2:	601c                	ld	a5,0(s0)
    502015b4:	4701                	li	a4,0
    502015b6:	4681                	li	a3,0
    502015b8:	4601                	li	a2,0
    502015ba:	4581                	li	a1,0
    502015bc:	00001517          	auipc	a0,0x1
    502015c0:	b2450513          	addi	a0,a0,-1244 # 502020e0 <strcat+0x3c4>
    502015c4:	9782                	jalr	a5
    502015c6:	855a                	mv	a0,s6
    502015c8:	66a000ef          	jal	50201c32 <strlen>
    502015cc:	2505                	addiw	a0,a0,1
    502015ce:	9b2a                	add	s6,s6,a0
    502015d0:	000b4783          	lbu	a5,0(s6)
    502015d4:	cf95                	beqz	a5,50201610 <main+0x5de>
    502015d6:	855a                	mv	a0,s6
    502015d8:	4f2000ef          	jal	50201aca <load_task_img>
    502015dc:	8baa                	mv	s7,a0
    502015de:	4701                	li	a4,0
    502015e0:	4681                	li	a3,0
    502015e2:	4601                	li	a2,0
    502015e4:	4581                	li	a1,0
    502015e6:	00001517          	auipc	a0,0x1
    502015ea:	ac250513          	addi	a0,a0,-1342 # 502020a8 <strcat+0x38c>
    502015ee:	f60b9de3          	bnez	s7,50201568 <main+0x536>
    502015f2:	00001517          	auipc	a0,0x1
    502015f6:	afe50513          	addi	a0,a0,-1282 # 502020f0 <strcat+0x3d4>
    502015fa:	152000ef          	jal	5020174c <bios_putstr>
    502015fe:	855a                	mv	a0,s6
    50201600:	14c000ef          	jal	5020174c <bios_putstr>
    50201604:	00001517          	auipc	a0,0x1
    50201608:	b1450513          	addi	a0,a0,-1260 # 50202118 <strcat+0x3fc>
    5020160c:	140000ef          	jal	5020174c <bios_putstr>
    50201610:	00001517          	auipc	a0,0x1
    50201614:	b2850513          	addi	a0,a0,-1240 # 50202138 <strcat+0x41c>
    50201618:	134000ef          	jal	5020174c <bios_putstr>
    5020161c:	be65                	j	502011d4 <main+0x1a2>
    5020161e:	20000613          	li	a2,512
    50201622:	4581                	li	a1,0
    50201624:	00001517          	auipc	a0,0x1
    50201628:	fec50513          	addi	a0,a0,-20 # 50202610 <batch_buffer>
    5020162c:	5de000ef          	jal	50201c0a <memset>
    50201630:	00001517          	auipc	a0,0x1
    50201634:	97050513          	addi	a0,a0,-1680 # 50201fa0 <strcat+0x284>
    50201638:	114000ef          	jal	5020174c <bios_putstr>
    5020163c:	00001797          	auipc	a5,0x1
    50201640:	1d47c783          	lbu	a5,468(a5) # 50202810 <task_list_buffer>
    50201644:	c7e9                	beqz	a5,5020170e <main+0x6dc>
    50201646:	02000713          	li	a4,32
    5020164a:	20000d13          	li	s10,512
    5020164e:	00001b97          	auipc	s7,0x1
    50201652:	fc2b8b93          	addi	s7,s7,-62 # 50202610 <batch_buffer>
    50201656:	00001b17          	auipc	s6,0x1
    5020165a:	1bab0b13          	addi	s6,s6,442 # 50202810 <task_list_buffer>
    5020165e:	00e79a63          	bne	a5,a4,50201672 <main+0x640>
    50201662:	02000713          	li	a4,32
    50201666:	001b4783          	lbu	a5,1(s6)
    5020166a:	0b05                	addi	s6,s6,1
    5020166c:	fee78de3          	beq	a5,a4,50201666 <main+0x634>
    50201670:	cfd9                	beqz	a5,5020170e <main+0x6dc>
    50201672:	000b4783          	lbu	a5,0(s6)
    50201676:	85da                	mv	a1,s6
    50201678:	02000c93          	li	s9,32
    5020167c:	0df7f793          	andi	a5,a5,223
    50201680:	c3c9                	beqz	a5,50201702 <main+0x6d0>
    50201682:	001b4783          	lbu	a5,1(s6)
    50201686:	0b05                	addi	s6,s6,1
    50201688:	0df7f793          	andi	a5,a5,223
    5020168c:	fbfd                	bnez	a5,50201682 <main+0x650>
    5020168e:	40bb0c3b          	subw	s8,s6,a1
    50201692:	07805863          	blez	s8,50201702 <main+0x6d0>
    50201696:	001c0d9b          	addiw	s11,s8,1
    5020169a:	07add463          	bge	s11,s10,50201702 <main+0x6d0>
    5020169e:	8662                	mv	a2,s8
    502016a0:	855e                	mv	a0,s7
    502016a2:	630000ef          	jal	50201cd2 <strncpy>
    502016a6:	018b87b3          	add	a5,s7,s8
    502016aa:	00078023          	sb	zero,0(a5)
    502016ae:	601c                	ld	a5,0(s0)
    502016b0:	4701                	li	a4,0
    502016b2:	4681                	li	a3,0
    502016b4:	4601                	li	a2,0
    502016b6:	4581                	li	a1,0
    502016b8:	00001517          	auipc	a0,0x1
    502016bc:	91050513          	addi	a0,a0,-1776 # 50201fc8 <strcat+0x2ac>
    502016c0:	9782                	jalr	a5
    502016c2:	601c                	ld	a5,0(s0)
    502016c4:	4701                	li	a4,0
    502016c6:	4681                	li	a3,0
    502016c8:	4601                	li	a2,0
    502016ca:	4581                	li	a1,0
    502016cc:	855e                	mv	a0,s7
    502016ce:	9782                	jalr	a5
    502016d0:	601c                	ld	a5,0(s0)
    502016d2:	4701                	li	a4,0
    502016d4:	4681                	li	a3,0
    502016d6:	4601                	li	a2,0
    502016d8:	4581                	li	a1,0
    502016da:	00001517          	auipc	a0,0x1
    502016de:	8fe50513          	addi	a0,a0,-1794 # 50201fd8 <strcat+0x2bc>
    502016e2:	9782                	jalr	a5
    502016e4:	000b4783          	lbu	a5,0(s6)
    502016e8:	c39d                	beqz	a5,5020170e <main+0x6dc>
    502016ea:	0c05                	addi	s8,s8,1
    502016ec:	9be2                	add	s7,s7,s8
    502016ee:	41bd0d3b          	subw	s10,s10,s11
    502016f2:	f79788e3          	beq	a5,s9,50201662 <main+0x630>
    502016f6:	000b4783          	lbu	a5,0(s6)
    502016fa:	85da                	mv	a1,s6
    502016fc:	0df7f793          	andi	a5,a5,223
    50201700:	f3c9                	bnez	a5,50201682 <main+0x650>
    50201702:	00001517          	auipc	a0,0x1
    50201706:	8de50513          	addi	a0,a0,-1826 # 50201fe0 <strcat+0x2c4>
    5020170a:	042000ef          	jal	5020174c <bios_putstr>
    5020170e:	00001517          	auipc	a0,0x1
    50201712:	91250513          	addi	a0,a0,-1774 # 50202020 <strcat+0x304>
    50201716:	036000ef          	jal	5020174c <bios_putstr>
    5020171a:	00001617          	auipc	a2,0x1
    5020171e:	dae61603          	lh	a2,-594(a2) # 502024c8 <batch_file_start_sector>
    50201722:	520007b7          	lui	a5,0x52000
    50201726:	f2078793          	addi	a5,a5,-224 # 51ffff20 <__BSS_END__+0x1df5198>
    5020172a:	639c                	ld	a5,0(a5)
    5020172c:	1602                	slli	a2,a2,0x20
    5020172e:	9201                	srli	a2,a2,0x20
    50201730:	8556                	mv	a0,s5
    50201732:	4701                	li	a4,0
    50201734:	4681                	li	a3,0
    50201736:	4585                	li	a1,1
    50201738:	9782                	jalr	a5
    5020173a:	00001517          	auipc	a0,0x1
    5020173e:	90650513          	addi	a0,a0,-1786 # 50202040 <strcat+0x324>
    50201742:	00a000ef          	jal	5020174c <bios_putstr>
    50201746:	b479                	j	502011d4 <main+0x1a2>
    50201748:	4485                	li	s1,1
    5020174a:	b23d                	j	50201078 <main+0x46>

000000005020174c <bios_putstr>:
    5020174c:	520007b7          	lui	a5,0x52000
    50201750:	f0078793          	addi	a5,a5,-256 # 51ffff00 <__BSS_END__+0x1df5178>
    50201754:	639c                	ld	a5,0(a5)
    50201756:	4701                	li	a4,0
    50201758:	4681                	li	a3,0
    5020175a:	4601                	li	a2,0
    5020175c:	4581                	li	a1,0
    5020175e:	8782                	jr	a5

0000000050201760 <get_str>:
    50201760:	711d                	addi	sp,sp,-96
    50201762:	f456                	sd	s5,40(sp)
    50201764:	f05a                	sd	s6,32(sp)
    50201766:	ec86                	sd	ra,88(sp)
    50201768:	e8a2                	sd	s0,80(sp)
    5020176a:	e4a6                	sd	s1,72(sp)
    5020176c:	e0ca                	sd	s2,64(sp)
    5020176e:	fc4e                	sd	s3,56(sp)
    50201770:	f852                	sd	s4,48(sp)
    50201772:	ec5e                	sd	s7,24(sp)
    50201774:	e862                	sd	s8,16(sp)
    50201776:	00050023          	sb	zero,0(a0)
    5020177a:	fe058793          	addi	a5,a1,-32
    5020177e:	8b2a                	mv	s6,a0
    50201780:	4afd                	li	s5,31
    50201782:	c399                	beqz	a5,50201788 <get_str+0x28>
    50201784:	1ff00a93          	li	s5,511
    50201788:	52000437          	lui	s0,0x52000
    5020178c:	f0840a13          	addi	s4,s0,-248 # 51ffff08 <__BSS_END__+0x1df5180>
    50201790:	4901                	li	s2,0
    50201792:	f1040413          	addi	s0,s0,-240
    50201796:	54fd                	li	s1,-1
    50201798:	49ed                	li	s3,27
    5020179a:	05b00b93          	li	s7,91
    5020179e:	601c                	ld	a5,0(s0)
    502017a0:	4701                	li	a4,0
    502017a2:	4681                	li	a3,0
    502017a4:	4601                	li	a2,0
    502017a6:	4581                	li	a1,0
    502017a8:	4501                	li	a0,0
    502017aa:	9782                	jalr	a5
    502017ac:	0005079b          	sext.w	a5,a0
    502017b0:	fe9787e3          	beq	a5,s1,5020179e <get_str+0x3e>
    502017b4:	07378d63          	beq	a5,s3,5020182e <get_str+0xce>
    502017b8:	ff378713          	addi	a4,a5,-13
    502017bc:	12070163          	beqz	a4,502018de <get_str+0x17e>
    502017c0:	ff678713          	addi	a4,a5,-10
    502017c4:	10070d63          	beqz	a4,502018de <get_str+0x17e>
    502017c8:	ff878713          	addi	a4,a5,-8
    502017cc:	c70d                	beqz	a4,502017f6 <get_str+0x96>
    502017ce:	f8178713          	addi	a4,a5,-127
    502017d2:	c315                	beqz	a4,502017f6 <get_str+0x96>
    502017d4:	fd5955e3          	bge	s2,s5,5020179e <get_str+0x3e>
    502017d8:	012b0733          	add	a4,s6,s2
    502017dc:	00a70023          	sb	a0,0(a4)
    502017e0:	000a3803          	ld	a6,0(s4)
    502017e4:	0ff7f513          	zext.b	a0,a5
    502017e8:	4701                	li	a4,0
    502017ea:	4681                	li	a3,0
    502017ec:	4601                	li	a2,0
    502017ee:	4581                	li	a1,0
    502017f0:	9802                	jalr	a6
    502017f2:	2905                	addiw	s2,s2,1
    502017f4:	b76d                	j	5020179e <get_str+0x3e>
    502017f6:	fb2054e3          	blez	s2,5020179e <get_str+0x3e>
    502017fa:	000a3783          	ld	a5,0(s4)
    502017fe:	4681                	li	a3,0
    50201800:	4601                	li	a2,0
    50201802:	4581                	li	a1,0
    50201804:	4521                	li	a0,8
    50201806:	9782                	jalr	a5
    50201808:	000a3783          	ld	a5,0(s4)
    5020180c:	4701                	li	a4,0
    5020180e:	4681                	li	a3,0
    50201810:	4601                	li	a2,0
    50201812:	4581                	li	a1,0
    50201814:	02000513          	li	a0,32
    50201818:	9782                	jalr	a5
    5020181a:	000a3783          	ld	a5,0(s4)
    5020181e:	4701                	li	a4,0
    50201820:	4681                	li	a3,0
    50201822:	4601                	li	a2,0
    50201824:	4581                	li	a1,0
    50201826:	4521                	li	a0,8
    50201828:	397d                	addiw	s2,s2,-1
    5020182a:	9782                	jalr	a5
    5020182c:	bf8d                	j	5020179e <get_str+0x3e>
    5020182e:	601c                	ld	a5,0(s0)
    50201830:	4701                	li	a4,0
    50201832:	4681                	li	a3,0
    50201834:	4601                	li	a2,0
    50201836:	4581                	li	a1,0
    50201838:	4501                	li	a0,0
    5020183a:	9782                	jalr	a5
    5020183c:	601c                	ld	a5,0(s0)
    5020183e:	00050c1b          	sext.w	s8,a0
    50201842:	4701                	li	a4,0
    50201844:	4681                	li	a3,0
    50201846:	4601                	li	a2,0
    50201848:	4581                	li	a1,0
    5020184a:	4501                	li	a0,0
    5020184c:	9782                	jalr	a5
    5020184e:	f57c18e3          	bne	s8,s7,5020179e <get_str+0x3e>
    50201852:	2501                	sext.w	a0,a0
    50201854:	04100793          	li	a5,65
    50201858:	0af50e63          	beq	a0,a5,50201914 <get_str+0x1b4>
    5020185c:	04200793          	li	a5,66
    50201860:	f2f51fe3          	bne	a0,a5,5020179e <get_str+0x3e>
    50201864:	00001717          	auipc	a4,0x1
    50201868:	c6072703          	lw	a4,-928(a4) # 502024c4 <history_count>
    5020186c:	00001797          	auipc	a5,0x1
    50201870:	c547a783          	lw	a5,-940(a5) # 502024c0 <history_current>
    50201874:	fff7069b          	addiw	a3,a4,-1
    50201878:	00e05463          	blez	a4,50201880 <get_str+0x120>
    5020187c:	14d7cf63          	blt	a5,a3,502019da <get_str+0x27a>
    50201880:	f0f69fe3          	bne	a3,a5,5020179e <get_str+0x3e>
    50201884:	00001797          	auipc	a5,0x1
    50201888:	c2e7ae23          	sw	a4,-964(a5) # 502024c0 <history_current>
    5020188c:	52000c37          	lui	s8,0x52000
    50201890:	f08c0c13          	addi	s8,s8,-248 # 51ffff08 <__BSS_END__+0x1df5180>
    50201894:	4781                	li	a5,0
    50201896:	05205063          	blez	s2,502018d6 <get_str+0x176>
    5020189a:	000c3803          	ld	a6,0(s8)
    5020189e:	4701                	li	a4,0
    502018a0:	4681                	li	a3,0
    502018a2:	4601                	li	a2,0
    502018a4:	4581                	li	a1,0
    502018a6:	4521                	li	a0,8
    502018a8:	e43e                	sd	a5,8(sp)
    502018aa:	9802                	jalr	a6
    502018ac:	000c3803          	ld	a6,0(s8)
    502018b0:	4701                	li	a4,0
    502018b2:	4681                	li	a3,0
    502018b4:	4601                	li	a2,0
    502018b6:	4581                	li	a1,0
    502018b8:	02000513          	li	a0,32
    502018bc:	9802                	jalr	a6
    502018be:	000c3803          	ld	a6,0(s8)
    502018c2:	4701                	li	a4,0
    502018c4:	4681                	li	a3,0
    502018c6:	4601                	li	a2,0
    502018c8:	4581                	li	a1,0
    502018ca:	4521                	li	a0,8
    502018cc:	9802                	jalr	a6
    502018ce:	67a2                	ld	a5,8(sp)
    502018d0:	2785                	addiw	a5,a5,1
    502018d2:	fcf914e3          	bne	s2,a5,5020189a <get_str+0x13a>
    502018d6:	000b0023          	sb	zero,0(s6)
    502018da:	4901                	li	s2,0
    502018dc:	b5c9                	j	5020179e <get_str+0x3e>
    502018de:	9b4a                	add	s6,s6,s2
    502018e0:	000b0023          	sb	zero,0(s6)
    502018e4:	520007b7          	lui	a5,0x52000
    502018e8:	6446                	ld	s0,80(sp)
    502018ea:	f0078793          	addi	a5,a5,-256 # 51ffff00 <__BSS_END__+0x1df5178>
    502018ee:	60e6                	ld	ra,88(sp)
    502018f0:	64a6                	ld	s1,72(sp)
    502018f2:	6906                	ld	s2,64(sp)
    502018f4:	79e2                	ld	s3,56(sp)
    502018f6:	7a42                	ld	s4,48(sp)
    502018f8:	7aa2                	ld	s5,40(sp)
    502018fa:	7b02                	ld	s6,32(sp)
    502018fc:	6be2                	ld	s7,24(sp)
    502018fe:	6c42                	ld	s8,16(sp)
    50201900:	639c                	ld	a5,0(a5)
    50201902:	4681                	li	a3,0
    50201904:	4601                	li	a2,0
    50201906:	4581                	li	a1,0
    50201908:	00000517          	auipc	a0,0x0
    5020190c:	44850513          	addi	a0,a0,1096 # 50201d50 <strcat+0x34>
    50201910:	6125                	addi	sp,sp,96
    50201912:	8782                	jr	a5
    50201914:	00001797          	auipc	a5,0x1
    50201918:	bb07a783          	lw	a5,-1104(a5) # 502024c4 <history_count>
    5020191c:	e8f051e3          	blez	a5,5020179e <get_str+0x3e>
    50201920:	00001797          	auipc	a5,0x1
    50201924:	ba07a783          	lw	a5,-1120(a5) # 502024c0 <history_current>
    50201928:	e6f05be3          	blez	a5,5020179e <get_str+0x3e>
    5020192c:	37fd                	addiw	a5,a5,-1
    5020192e:	00001717          	auipc	a4,0x1
    50201932:	b8f72923          	sw	a5,-1134(a4) # 502024c0 <history_current>
    50201936:	05205963          	blez	s2,50201988 <get_str+0x228>
    5020193a:	52000c37          	lui	s8,0x52000
    5020193e:	f08c0c13          	addi	s8,s8,-248 # 51ffff08 <__BSS_END__+0x1df5180>
    50201942:	4781                	li	a5,0
    50201944:	000c3803          	ld	a6,0(s8)
    50201948:	4701                	li	a4,0
    5020194a:	4681                	li	a3,0
    5020194c:	4601                	li	a2,0
    5020194e:	4581                	li	a1,0
    50201950:	4521                	li	a0,8
    50201952:	e43e                	sd	a5,8(sp)
    50201954:	9802                	jalr	a6
    50201956:	000c3803          	ld	a6,0(s8)
    5020195a:	4701                	li	a4,0
    5020195c:	4681                	li	a3,0
    5020195e:	4601                	li	a2,0
    50201960:	4581                	li	a1,0
    50201962:	02000513          	li	a0,32
    50201966:	9802                	jalr	a6
    50201968:	000c3803          	ld	a6,0(s8)
    5020196c:	4701                	li	a4,0
    5020196e:	4681                	li	a3,0
    50201970:	4601                	li	a2,0
    50201972:	4581                	li	a1,0
    50201974:	4521                	li	a0,8
    50201976:	9802                	jalr	a6
    50201978:	67a2                	ld	a5,8(sp)
    5020197a:	2785                	addiw	a5,a5,1
    5020197c:	fcf914e3          	bne	s2,a5,50201944 <get_str+0x1e4>
    50201980:	00001797          	auipc	a5,0x1
    50201984:	b407a783          	lw	a5,-1216(a5) # 502024c0 <history_current>
    50201988:	66666737          	lui	a4,0x66666
    5020198c:	66770713          	addi	a4,a4,1639 # 66666667 <__BSS_END__+0x1645b8df>
    50201990:	02e78733          	mul	a4,a5,a4
    50201994:	41f7d69b          	sraiw	a3,a5,0x1f
    50201998:	00001597          	auipc	a1,0x1
    5020199c:	b3858593          	addi	a1,a1,-1224 # 502024d0 <history_buffer>
    502019a0:	855a                	mv	a0,s6
    502019a2:	9709                	srai	a4,a4,0x22
    502019a4:	9f15                	subw	a4,a4,a3
    502019a6:	0027169b          	slliw	a3,a4,0x2
    502019aa:	9f35                	addw	a4,a4,a3
    502019ac:	0017171b          	slliw	a4,a4,0x1
    502019b0:	9f99                	subw	a5,a5,a4
    502019b2:	0796                	slli	a5,a5,0x5
    502019b4:	95be                	add	a1,a1,a5
    502019b6:	300000ef          	jal	50201cb6 <strcpy>
    502019ba:	855a                	mv	a0,s6
    502019bc:	276000ef          	jal	50201c32 <strlen>
    502019c0:	520007b7          	lui	a5,0x52000
    502019c4:	f0078793          	addi	a5,a5,-256 # 51ffff00 <__BSS_END__+0x1df5178>
    502019c8:	639c                	ld	a5,0(a5)
    502019ca:	892a                	mv	s2,a0
    502019cc:	4701                	li	a4,0
    502019ce:	855a                	mv	a0,s6
    502019d0:	4681                	li	a3,0
    502019d2:	4601                	li	a2,0
    502019d4:	4581                	li	a1,0
    502019d6:	9782                	jalr	a5
    502019d8:	b3d9                	j	5020179e <get_str+0x3e>
    502019da:	2785                	addiw	a5,a5,1
    502019dc:	00001717          	auipc	a4,0x1
    502019e0:	aef72223          	sw	a5,-1308(a4) # 502024c0 <history_current>
    502019e4:	fb2052e3          	blez	s2,50201988 <get_str+0x228>
    502019e8:	52000c37          	lui	s8,0x52000
    502019ec:	f08c0c13          	addi	s8,s8,-248 # 51ffff08 <__BSS_END__+0x1df5180>
    502019f0:	4781                	li	a5,0
    502019f2:	000c3803          	ld	a6,0(s8)
    502019f6:	4701                	li	a4,0
    502019f8:	4681                	li	a3,0
    502019fa:	4601                	li	a2,0
    502019fc:	4581                	li	a1,0
    502019fe:	4521                	li	a0,8
    50201a00:	e43e                	sd	a5,8(sp)
    50201a02:	9802                	jalr	a6
    50201a04:	000c3803          	ld	a6,0(s8)
    50201a08:	4701                	li	a4,0
    50201a0a:	4681                	li	a3,0
    50201a0c:	4601                	li	a2,0
    50201a0e:	4581                	li	a1,0
    50201a10:	02000513          	li	a0,32
    50201a14:	9802                	jalr	a6
    50201a16:	000c3803          	ld	a6,0(s8)
    50201a1a:	4701                	li	a4,0
    50201a1c:	4681                	li	a3,0
    50201a1e:	4601                	li	a2,0
    50201a20:	4581                	li	a1,0
    50201a22:	4521                	li	a0,8
    50201a24:	9802                	jalr	a6
    50201a26:	67a2                	ld	a5,8(sp)
    50201a28:	2785                	addiw	a5,a5,1
    50201a2a:	fcf914e3          	bne	s2,a5,502019f2 <get_str+0x292>
    50201a2e:	bf89                	j	50201980 <get_str+0x220>

0000000050201a30 <port_write_ch>:
    50201a30:	50150337          	lui	t1,0x50150
    50201a34:	4885                	li	a7,1
    50201a36:	4801                	li	a6,0
    50201a38:	4781                	li	a5,0
    50201a3a:	4701                	li	a4,0
    50201a3c:	4681                	li	a3,0
    50201a3e:	4601                	li	a2,0
    50201a40:	4581                	li	a1,0
    50201a42:	8302                	jr	t1

0000000050201a44 <port_write>:
    50201a44:	50150337          	lui	t1,0x50150
    50201a48:	48a5                	li	a7,9
    50201a4a:	4801                	li	a6,0
    50201a4c:	4781                	li	a5,0
    50201a4e:	4701                	li	a4,0
    50201a50:	4681                	li	a3,0
    50201a52:	4601                	li	a2,0
    50201a54:	4581                	li	a1,0
    50201a56:	8302                	jr	t1

0000000050201a58 <port_read_ch>:
    50201a58:	1141                	addi	sp,sp,-16
    50201a5a:	e406                	sd	ra,8(sp)
    50201a5c:	50150337          	lui	t1,0x50150
    50201a60:	4889                	li	a7,2
    50201a62:	4801                	li	a6,0
    50201a64:	4781                	li	a5,0
    50201a66:	4701                	li	a4,0
    50201a68:	4681                	li	a3,0
    50201a6a:	4601                	li	a2,0
    50201a6c:	4581                	li	a1,0
    50201a6e:	4501                	li	a0,0
    50201a70:	9302                	jalr	t1
    50201a72:	60a2                	ld	ra,8(sp)
    50201a74:	2501                	sext.w	a0,a0
    50201a76:	0141                	addi	sp,sp,16
    50201a78:	8082                	ret

0000000050201a7a <sd_read>:
    50201a7a:	1141                	addi	sp,sp,-16
    50201a7c:	1502                	slli	a0,a0,0x20
    50201a7e:	1582                	slli	a1,a1,0x20
    50201a80:	1602                	slli	a2,a2,0x20
    50201a82:	e406                	sd	ra,8(sp)
    50201a84:	9101                	srli	a0,a0,0x20
    50201a86:	9181                	srli	a1,a1,0x20
    50201a88:	9201                	srli	a2,a2,0x20
    50201a8a:	50150337          	lui	t1,0x50150
    50201a8e:	48ad                	li	a7,11
    50201a90:	4801                	li	a6,0
    50201a92:	4781                	li	a5,0
    50201a94:	4701                	li	a4,0
    50201a96:	4681                	li	a3,0
    50201a98:	9302                	jalr	t1
    50201a9a:	60a2                	ld	ra,8(sp)
    50201a9c:	2501                	sext.w	a0,a0
    50201a9e:	0141                	addi	sp,sp,16
    50201aa0:	8082                	ret

0000000050201aa2 <sd_write>:
    50201aa2:	1141                	addi	sp,sp,-16
    50201aa4:	1502                	slli	a0,a0,0x20
    50201aa6:	1582                	slli	a1,a1,0x20
    50201aa8:	1602                	slli	a2,a2,0x20
    50201aaa:	e406                	sd	ra,8(sp)
    50201aac:	9101                	srli	a0,a0,0x20
    50201aae:	9181                	srli	a1,a1,0x20
    50201ab0:	9201                	srli	a2,a2,0x20
    50201ab2:	50150337          	lui	t1,0x50150
    50201ab6:	48a9                	li	a7,10
    50201ab8:	4801                	li	a6,0
    50201aba:	4781                	li	a5,0
    50201abc:	4701                	li	a4,0
    50201abe:	4681                	li	a3,0
    50201ac0:	9302                	jalr	t1
    50201ac2:	60a2                	ld	ra,8(sp)
    50201ac4:	2501                	sext.w	a0,a0
    50201ac6:	0141                	addi	sp,sp,16
    50201ac8:	8082                	ret

0000000050201aca <load_task_img>:
    50201aca:	7179                	addi	sp,sp,-48
    50201acc:	e44e                	sd	s3,8(sp)
    50201ace:	00001997          	auipc	s3,0x1
    50201ad2:	f7a98993          	addi	s3,s3,-134 # 50202a48 <tasks>
    50201ad6:	f022                	sd	s0,32(sp)
    50201ad8:	ec26                	sd	s1,24(sp)
    50201ada:	e84a                	sd	s2,16(sp)
    50201adc:	e052                	sd	s4,0(sp)
    50201ade:	f406                	sd	ra,40(sp)
    50201ae0:	8a2a                	mv	s4,a0
    50201ae2:	844e                	mv	s0,s3
    50201ae4:	4481                	li	s1,0
    50201ae6:	4941                	li	s2,16
    50201ae8:	a031                	j	50201af4 <load_task_img+0x2a>
    50201aea:	2485                	addiw	s1,s1,1
    50201aec:	03040413          	addi	s0,s0,48
    50201af0:	0b248e63          	beq	s1,s2,50201bac <load_task_img+0xe2>
    50201af4:	00044783          	lbu	a5,0(s0)
    50201af8:	dbed                	beqz	a5,50201aea <load_task_img+0x20>
    50201afa:	85d2                	mv	a1,s4
    50201afc:	8522                	mv	a0,s0
    50201afe:	152000ef          	jal	50201c50 <strcmp>
    50201b02:	f565                	bnez	a0,50201aea <load_task_img+0x20>
    50201b04:	00149793          	slli	a5,s1,0x1
    50201b08:	97a6                	add	a5,a5,s1
    50201b0a:	0792                	slli	a5,a5,0x4
    50201b0c:	00f98433          	add	s0,s3,a5
    50201b10:	02042903          	lw	s2,32(s0)
    50201b14:	02442983          	lw	s3,36(s0)
    50201b18:	67a1                	lui	a5,0x8
    50201b1a:	0099561b          	srliw	a2,s2,0x9
    50201b1e:	013905bb          	addw	a1,s2,s3
    50201b22:	35fd                	addiw	a1,a1,-1
    50201b24:	0095d59b          	srliw	a1,a1,0x9
    50201b28:	9d91                	subw	a1,a1,a2
    50201b2a:	2585                	addiw	a1,a1,1
    50201b2c:	0095971b          	slliw	a4,a1,0x9
    50201b30:	04e7e763          	bltu	a5,a4,50201b7e <load_task_img+0xb4>
    50201b34:	520007b7          	lui	a5,0x52000
    50201b38:	f1878793          	addi	a5,a5,-232 # 51ffff18 <__BSS_END__+0x1df5190>
    50201b3c:	00001a17          	auipc	s4,0x1
    50201b40:	24ca0a13          	addi	s4,s4,588 # 50202d88 <read_buffer>
    50201b44:	639c                	ld	a5,0(a5)
    50201b46:	020a1513          	slli	a0,s4,0x20
    50201b4a:	1582                	slli	a1,a1,0x20
    50201b4c:	9181                	srli	a1,a1,0x20
    50201b4e:	4701                	li	a4,0
    50201b50:	4681                	li	a3,0
    50201b52:	9101                	srli	a0,a0,0x20
    50201b54:	9782                	jalr	a5
    50201b56:	6515                	lui	a0,0x5
    50201b58:	2005051b          	addiw	a0,a0,512 # 5200 <_start-0x501fbe00>
    50201b5c:	1ff97593          	andi	a1,s2,511
    50201b60:	9d25                	addw	a0,a0,s1
    50201b62:	95d2                	add	a1,a1,s4
    50201b64:	864e                	mv	a2,s3
    50201b66:	0542                	slli	a0,a0,0x10
    50201b68:	088000ef          	jal	50201bf0 <memcpy>
    50201b6c:	7408                	ld	a0,40(s0)
    50201b6e:	70a2                	ld	ra,40(sp)
    50201b70:	7402                	ld	s0,32(sp)
    50201b72:	64e2                	ld	s1,24(sp)
    50201b74:	6942                	ld	s2,16(sp)
    50201b76:	69a2                	ld	s3,8(sp)
    50201b78:	6a02                	ld	s4,0(sp)
    50201b7a:	6145                	addi	sp,sp,48
    50201b7c:	8082                	ret
    50201b7e:	520007b7          	lui	a5,0x52000
    50201b82:	f0078793          	addi	a5,a5,-256 # 51ffff00 <__BSS_END__+0x1df5178>
    50201b86:	639c                	ld	a5,0(a5)
    50201b88:	4701                	li	a4,0
    50201b8a:	4681                	li	a3,0
    50201b8c:	4601                	li	a2,0
    50201b8e:	4581                	li	a1,0
    50201b90:	00000517          	auipc	a0,0x0
    50201b94:	62050513          	addi	a0,a0,1568 # 502021b0 <strcat+0x494>
    50201b98:	9782                	jalr	a5
    50201b9a:	4501                	li	a0,0
    50201b9c:	70a2                	ld	ra,40(sp)
    50201b9e:	7402                	ld	s0,32(sp)
    50201ba0:	64e2                	ld	s1,24(sp)
    50201ba2:	6942                	ld	s2,16(sp)
    50201ba4:	69a2                	ld	s3,8(sp)
    50201ba6:	6a02                	ld	s4,0(sp)
    50201ba8:	6145                	addi	sp,sp,48
    50201baa:	8082                	ret
    50201bac:	52000437          	lui	s0,0x52000
    50201bb0:	f0043783          	ld	a5,-256(s0) # 51ffff00 <__BSS_END__+0x1df5178>
    50201bb4:	4701                	li	a4,0
    50201bb6:	4681                	li	a3,0
    50201bb8:	4601                	li	a2,0
    50201bba:	4581                	li	a1,0
    50201bbc:	00000517          	auipc	a0,0x0
    50201bc0:	62c50513          	addi	a0,a0,1580 # 502021e8 <strcat+0x4cc>
    50201bc4:	9782                	jalr	a5
    50201bc6:	f0043783          	ld	a5,-256(s0)
    50201bca:	4701                	li	a4,0
    50201bcc:	4681                	li	a3,0
    50201bce:	4601                	li	a2,0
    50201bd0:	4581                	li	a1,0
    50201bd2:	8552                	mv	a0,s4
    50201bd4:	9782                	jalr	a5
    50201bd6:	f0043783          	ld	a5,-256(s0)
    50201bda:	4701                	li	a4,0
    50201bdc:	4681                	li	a3,0
    50201bde:	4601                	li	a2,0
    50201be0:	4581                	li	a1,0
    50201be2:	00000517          	auipc	a0,0x0
    50201be6:	3f650513          	addi	a0,a0,1014 # 50201fd8 <strcat+0x2bc>
    50201bea:	9782                	jalr	a5
    50201bec:	4501                	li	a0,0
    50201bee:	b77d                	j	50201b9c <load_task_img+0xd2>

0000000050201bf0 <memcpy>:
    50201bf0:	ce01                	beqz	a2,50201c08 <memcpy+0x18>
    50201bf2:	1602                	slli	a2,a2,0x20
    50201bf4:	9201                	srli	a2,a2,0x20
    50201bf6:	962a                	add	a2,a2,a0
    50201bf8:	0005c783          	lbu	a5,0(a1)
    50201bfc:	0505                	addi	a0,a0,1
    50201bfe:	0585                	addi	a1,a1,1
    50201c00:	fef50fa3          	sb	a5,-1(a0)
    50201c04:	fec51ae3          	bne	a0,a2,50201bf8 <memcpy+0x8>
    50201c08:	8082                	ret

0000000050201c0a <memset>:
    50201c0a:	ca09                	beqz	a2,50201c1c <memset+0x12>
    50201c0c:	1602                	slli	a2,a2,0x20
    50201c0e:	9201                	srli	a2,a2,0x20
    50201c10:	962a                	add	a2,a2,a0
    50201c12:	0505                	addi	a0,a0,1
    50201c14:	feb50fa3          	sb	a1,-1(a0)
    50201c18:	fec51de3          	bne	a0,a2,50201c12 <memset+0x8>
    50201c1c:	8082                	ret

0000000050201c1e <bzero>:
    50201c1e:	c989                	beqz	a1,50201c30 <bzero+0x12>
    50201c20:	1582                	slli	a1,a1,0x20
    50201c22:	9181                	srli	a1,a1,0x20
    50201c24:	95aa                	add	a1,a1,a0
    50201c26:	0505                	addi	a0,a0,1
    50201c28:	fe050fa3          	sb	zero,-1(a0)
    50201c2c:	feb51de3          	bne	a0,a1,50201c26 <bzero+0x8>
    50201c30:	8082                	ret

0000000050201c32 <strlen>:
    50201c32:	00054783          	lbu	a5,0(a0)
    50201c36:	cb99                	beqz	a5,50201c4c <strlen+0x1a>
    50201c38:	00150793          	addi	a5,a0,1
    50201c3c:	86be                	mv	a3,a5
    50201c3e:	0007c703          	lbu	a4,0(a5)
    50201c42:	0785                	addi	a5,a5,1
    50201c44:	ff65                	bnez	a4,50201c3c <strlen+0xa>
    50201c46:	40a6853b          	subw	a0,a3,a0
    50201c4a:	8082                	ret
    50201c4c:	4501                	li	a0,0
    50201c4e:	8082                	ret

0000000050201c50 <strcmp>:
    50201c50:	00054703          	lbu	a4,0(a0)
    50201c54:	eb01                	bnez	a4,50201c64 <strcmp+0x14>
    50201c56:	a025                	j	50201c7e <strcmp+0x2e>
    50201c58:	00e79b63          	bne	a5,a4,50201c6e <strcmp+0x1e>
    50201c5c:	00054703          	lbu	a4,0(a0)
    50201c60:	cb11                	beqz	a4,50201c74 <strcmp+0x24>
    50201c62:	0585                	addi	a1,a1,1
    50201c64:	0005c783          	lbu	a5,0(a1)
    50201c68:	0505                	addi	a0,a0,1
    50201c6a:	f7fd                	bnez	a5,50201c58 <strcmp+0x8>
    50201c6c:	2701                	sext.w	a4,a4
    50201c6e:	40f7053b          	subw	a0,a4,a5
    50201c72:	8082                	ret
    50201c74:	0015c783          	lbu	a5,1(a1)
    50201c78:	40f7053b          	subw	a0,a4,a5
    50201c7c:	8082                	ret
    50201c7e:	0005c783          	lbu	a5,0(a1)
    50201c82:	b7f5                	j	50201c6e <strcmp+0x1e>

0000000050201c84 <strncmp>:
    50201c84:	c21d                	beqz	a2,50201caa <strncmp+0x26>
    50201c86:	1602                	slli	a2,a2,0x20
    50201c88:	9201                	srli	a2,a2,0x20
    50201c8a:	962a                	add	a2,a2,a0
    50201c8c:	a031                	j	50201c98 <strncmp+0x14>
    50201c8e:	0585                	addi	a1,a1,1
    50201c90:	00e79f63          	bne	a5,a4,50201cae <strncmp+0x2a>
    50201c94:	00c50b63          	beq	a0,a2,50201caa <strncmp+0x26>
    50201c98:	00054783          	lbu	a5,0(a0)
    50201c9c:	0005c703          	lbu	a4,0(a1)
    50201ca0:	0505                	addi	a0,a0,1
    50201ca2:	f7f5                	bnez	a5,50201c8e <strncmp+0xa>
    50201ca4:	4501                	li	a0,0
    50201ca6:	9d19                	subw	a0,a0,a4
    50201ca8:	8082                	ret
    50201caa:	4501                	li	a0,0
    50201cac:	8082                	ret
    50201cae:	0007851b          	sext.w	a0,a5
    50201cb2:	9d19                	subw	a0,a0,a4
    50201cb4:	8082                	ret

0000000050201cb6 <strcpy>:
    50201cb6:	0005c783          	lbu	a5,0(a1)
    50201cba:	872a                	mv	a4,a0
    50201cbc:	cb81                	beqz	a5,50201ccc <strcpy+0x16>
    50201cbe:	0585                	addi	a1,a1,1
    50201cc0:	00f70023          	sb	a5,0(a4)
    50201cc4:	0005c783          	lbu	a5,0(a1)
    50201cc8:	0705                	addi	a4,a4,1
    50201cca:	fbf5                	bnez	a5,50201cbe <strcpy+0x8>
    50201ccc:	00070023          	sb	zero,0(a4)
    50201cd0:	8082                	ret

0000000050201cd2 <strncpy>:
    50201cd2:	0005c683          	lbu	a3,0(a1)
    50201cd6:	88b2                	mv	a7,a2
    50201cd8:	87aa                	mv	a5,a0
    50201cda:	c685                	beqz	a3,50201d02 <strncpy+0x30>
    50201cdc:	fff6081b          	addiw	a6,a2,-1
    50201ce0:	0105083b          	addw	a6,a0,a6
    50201ce4:	9e29                	addw	a2,a2,a0
    50201ce6:	a039                	j	50201cf4 <strncpy+0x22>
    50201ce8:	00d78023          	sb	a3,0(a5)
    50201cec:	0005c683          	lbu	a3,0(a1)
    50201cf0:	0785                	addi	a5,a5,1
    50201cf2:	ca81                	beqz	a3,50201d02 <strncpy+0x30>
    50201cf4:	40f6073b          	subw	a4,a2,a5
    50201cf8:	0585                	addi	a1,a1,1
    50201cfa:	40f808bb          	subw	a7,a6,a5
    50201cfe:	fee045e3          	bgtz	a4,50201ce8 <strncpy+0x16>
    50201d02:	02089713          	slli	a4,a7,0x20
    50201d06:	9301                	srli	a4,a4,0x20
    50201d08:	973e                	add	a4,a4,a5
    50201d0a:	01105863          	blez	a7,50201d1a <strncpy+0x48>
    50201d0e:	0785                	addi	a5,a5,1
    50201d10:	fe078fa3          	sb	zero,-1(a5)
    50201d14:	fef71de3          	bne	a4,a5,50201d0e <strncpy+0x3c>
    50201d18:	8082                	ret
    50201d1a:	8082                	ret

0000000050201d1c <strcat>:
    50201d1c:	00054783          	lbu	a5,0(a0)
    50201d20:	c39d                	beqz	a5,50201d46 <strcat+0x2a>
    50201d22:	87aa                	mv	a5,a0
    50201d24:	0017c703          	lbu	a4,1(a5)
    50201d28:	0785                	addi	a5,a5,1
    50201d2a:	ff6d                	bnez	a4,50201d24 <strcat+0x8>
    50201d2c:	0005c703          	lbu	a4,0(a1)
    50201d30:	cb01                	beqz	a4,50201d40 <strcat+0x24>
    50201d32:	0785                	addi	a5,a5,1
    50201d34:	0585                	addi	a1,a1,1
    50201d36:	fee78fa3          	sb	a4,-1(a5)
    50201d3a:	0005c703          	lbu	a4,0(a1)
    50201d3e:	fb75                	bnez	a4,50201d32 <strcat+0x16>
    50201d40:	00078023          	sb	zero,0(a5)
    50201d44:	8082                	ret
    50201d46:	87aa                	mv	a5,a0
    50201d48:	bfcd                	j	50201d3a <strcat+0x1e>
