
build/main:     file format elf64-littleriscv


Disassembly of section .text:

ffffffc050202000 <_boot>:
ffffffc050202000:	10401073          	csrw	sie,zero
ffffffc050202004:	14401073          	csrw	sip,zero
ffffffc050202008:	520022b7          	lui	t0,0x52002
ffffffc05020200c:	6305                	lui	t1,0x1
ffffffc05020200e:	f1402573          	csrr	a0,mhartid
ffffffc050202012:	02a30333          	mul	t1,t1,a0
ffffffc050202016:	40628133          	sub	sp,t0,t1
ffffffc05020201a:	078000ef          	jal	ffffffc050202092 <boot_kernel>

ffffffc05020201e <loop>:
ffffffc05020201e:	10500073          	wfi
ffffffc050202022:	bff5                	j	ffffffc05020201e <loop>
ffffffc050202024:	0001                	nop

ffffffc050202026 <map_page.constprop.0>:
ffffffc050202026:	0566                	slli	a0,a0,0x19
ffffffc050202028:	03755693          	srli	a3,a0,0x37
ffffffc05020202c:	510007b7          	lui	a5,0x51000
ffffffc050202030:	068e                	slli	a3,a3,0x3
ffffffc050202032:	96be                	add	a3,a3,a5
ffffffc050202034:	629c                	ld	a5,0(a3)
ffffffc050202036:	00951713          	slli	a4,a0,0x9
ffffffc05020203a:	03775513          	srli	a0,a4,0x37
ffffffc05020203e:	eb9d                	bnez	a5,ffffffc050202074 <map_page.constprop.0+0x4e>
ffffffc050202040:	00004817          	auipc	a6,0x4
ffffffc050202044:	70883803          	ld	a6,1800(a6) # ffffffc050206748 <pg_base.0>
ffffffc050202048:	6705                	lui	a4,0x1
ffffffc05020204a:	77fd                	lui	a5,0xfffff
ffffffc05020204c:	983a                	add	a6,a6,a4
ffffffc05020204e:	00c85613          	srli	a2,a6,0xc
ffffffc050202052:	062a                	slli	a2,a2,0xa
ffffffc050202054:	00166613          	ori	a2,a2,1
ffffffc050202058:	00f877b3          	and	a5,a6,a5
ffffffc05020205c:	00004897          	auipc	a7,0x4
ffffffc050202060:	6f08b623          	sd	a6,1772(a7) # ffffffc050206748 <pg_base.0>
ffffffc050202064:	e290                	sd	a2,0(a3)
ffffffc050202066:	973e                	add	a4,a4,a5
ffffffc050202068:	0007b023          	sd	zero,0(a5) # fffffffffffff000 <__BSS_END__+0x3fafde07c8>
ffffffc05020206c:	07a1                	addi	a5,a5,8
ffffffc05020206e:	fef71de3          	bne	a4,a5,ffffffc050202068 <map_page.constprop.0+0x42>
ffffffc050202072:	629c                	ld	a5,0(a3)
ffffffc050202074:	83a9                	srli	a5,a5,0xa
ffffffc050202076:	07b2                	slli	a5,a5,0xc
ffffffc050202078:	050e                	slli	a0,a0,0x3
ffffffc05020207a:	97aa                	add	a5,a5,a0
ffffffc05020207c:	6398                	ld	a4,0(a5)
ffffffc05020207e:	00c5d693          	srli	a3,a1,0xc
ffffffc050202082:	06aa                	slli	a3,a3,0xa
ffffffc050202084:	3ff77713          	andi	a4,a4,1023
ffffffc050202088:	8f55                	or	a4,a4,a3
ffffffc05020208a:	0cf76713          	ori	a4,a4,207
ffffffc05020208e:	e398                	sd	a4,0(a5)
ffffffc050202090:	8082                	ret

ffffffc050202092 <boot_kernel>:
ffffffc050202092:	7179                	addi	sp,sp,-48
ffffffc050202094:	e052                	sd	s4,0(sp)
ffffffc050202096:	f406                	sd	ra,40(sp)
ffffffc050202098:	8a2a                	mv	s4,a0
ffffffc05020209a:	c915                	beqz	a0,ffffffc0502020ce <boot_kernel+0x3c>
ffffffc05020209c:	57fd                	li	a5,-1
ffffffc05020209e:	17ce                	slli	a5,a5,0x33
ffffffc0502020a0:	05178793          	addi	a5,a5,81
ffffffc0502020a4:	07b2                	slli	a5,a5,0xc
ffffffc0502020a6:	12000073          	sfence.vma
ffffffc0502020aa:	18079073          	csrw	satp,a5
ffffffc0502020ae:	12000073          	sfence.vma
ffffffc0502020b2:	577d                	li	a4,-1
ffffffc0502020b4:	171a                	slli	a4,a4,0x26
ffffffc0502020b6:	00000797          	auipc	a5,0x0
ffffffc0502020ba:	09278793          	addi	a5,a5,146 # ffffffc050202148 <_start>
ffffffc0502020be:	8552                	mv	a0,s4
ffffffc0502020c0:	97ba                	add	a5,a5,a4
ffffffc0502020c2:	9782                	jalr	a5
ffffffc0502020c4:	70a2                	ld	ra,40(sp)
ffffffc0502020c6:	6a02                	ld	s4,0(sp)
ffffffc0502020c8:	4501                	li	a0,0
ffffffc0502020ca:	6145                	addi	sp,sp,48
ffffffc0502020cc:	8082                	ret
ffffffc0502020ce:	f022                	sd	s0,32(sp)
ffffffc0502020d0:	ec26                	sd	s1,24(sp)
ffffffc0502020d2:	e84a                	sd	s2,16(sp)
ffffffc0502020d4:	e44e                	sd	s3,8(sp)
ffffffc0502020d6:	510007b7          	lui	a5,0x51000
ffffffc0502020da:	51001737          	lui	a4,0x51001
ffffffc0502020de:	0007b023          	sd	zero,0(a5) # 51000000 <per_cpu_stack_size+0x50fff000>
ffffffc0502020e2:	07a1                	addi	a5,a5,8
ffffffc0502020e4:	fee79de3          	bne	a5,a4,ffffffc0502020de <boot_kernel+0x4c>
ffffffc0502020e8:	c0500413          	li	s0,-1019
ffffffc0502020ec:	4905                	li	s2,1
ffffffc0502020ee:	e0300493          	li	s1,-509
ffffffc0502020f2:	0472                	slli	s0,s0,0x1c
ffffffc0502020f4:	191a                	slli	s2,s2,0x26
ffffffc0502020f6:	04f6                	slli	s1,s1,0x1d
ffffffc0502020f8:	002009b7          	lui	s3,0x200
ffffffc0502020fc:	012405b3          	add	a1,s0,s2
ffffffc050202100:	8522                	mv	a0,s0
ffffffc050202102:	944e                	add	s0,s0,s3
ffffffc050202104:	f23ff0ef          	jal	ffffffc050202026 <map_page.constprop.0>
ffffffc050202108:	fe941ae3          	bne	s0,s1,ffffffc0502020fc <boot_kernel+0x6a>
ffffffc05020210c:	50000437          	lui	s0,0x50000
ffffffc050202110:	00200937          	lui	s2,0x200
ffffffc050202114:	510004b7          	lui	s1,0x51000
ffffffc050202118:	85a2                	mv	a1,s0
ffffffc05020211a:	8522                	mv	a0,s0
ffffffc05020211c:	944a                	add	s0,s0,s2
ffffffc05020211e:	f09ff0ef          	jal	ffffffc050202026 <map_page.constprop.0>
ffffffc050202122:	fe941be3          	bne	s0,s1,ffffffc050202118 <boot_kernel+0x86>
ffffffc050202126:	57fd                	li	a5,-1
ffffffc050202128:	17ce                	slli	a5,a5,0x33
ffffffc05020212a:	05178793          	addi	a5,a5,81
ffffffc05020212e:	07b2                	slli	a5,a5,0xc
ffffffc050202130:	12000073          	sfence.vma
ffffffc050202134:	18079073          	csrw	satp,a5
ffffffc050202138:	12000073          	sfence.vma
ffffffc05020213c:	7402                	ld	s0,32(sp)
ffffffc05020213e:	64e2                	ld	s1,24(sp)
ffffffc050202140:	6942                	ld	s2,16(sp)
ffffffc050202142:	69a2                	ld	s3,8(sp)
ffffffc050202144:	b7bd                	j	ffffffc0502020b2 <boot_kernel+0x20>

Disassembly of section .text:

ffffffc050202148 <_start>:
ffffffc050202148:	10401073          	csrw	sie,zero
ffffffc05020214c:	14401073          	csrw	sip,zero
ffffffc050202150:	892a                	mv	s2,a0
ffffffc050202152:	89ae                	mv	s3,a1
ffffffc050202154:	f1402573          	csrr	a0,mhartid
ffffffc050202158:	ed19                	bnez	a0,ffffffc050202176 <bss_done>
ffffffc05020215a:	00004417          	auipc	s0,0x4
ffffffc05020215e:	61240413          	addi	s0,s0,1554 # ffffffc05020676c <__bss_start>
ffffffc050202162:	0001c497          	auipc	s1,0x1c
ffffffc050202166:	6d648493          	addi	s1,s1,1750 # ffffffc05021e838 <__BSS_END__>

ffffffc05020216a <clear_bss_loop>:
ffffffc05020216a:	00947663          	bgeu	s0,s1,ffffffc050202176 <bss_done>
ffffffc05020216e:	00042023          	sw	zero,0(s0)
ffffffc050202172:	0411                	addi	s0,s0,4
ffffffc050202174:	bfdd                	j	ffffffc05020216a <clear_bss_loop>

ffffffc050202176 <bss_done>:
ffffffc050202176:	fffc0137          	lui	sp,0xfffc0
ffffffc05020217a:	5051011b          	addiw	sp,sp,1285 # fffffffffffc0505 <__BSS_END__+0x3fafda1ccd>
ffffffc05020217e:	0152                	slli	sp,sp,0x14
ffffffc050202180:	6285                	lui	t0,0x1
ffffffc050202182:	f1402573          	csrr	a0,mhartid
ffffffc050202186:	0505                	addi	a0,a0,1
ffffffc050202188:	02a282b3          	mul	t0,t0,a0
ffffffc05020218c:	9116                	add	sp,sp,t0
ffffffc05020218e:	854a                	mv	a0,s2
ffffffc050202190:	85ce                	mv	a1,s3
ffffffc050202192:	00c0006f          	j	ffffffc05020219e <main>

ffffffc050202196 <loop>:
ffffffc050202196:	10500073          	wfi
ffffffc05020219a:	bff5                	j	ffffffc050202196 <loop>
ffffffc05020219c:	0001                	nop

ffffffc05020219e <main>:
ffffffc05020219e:	711d                	addi	sp,sp,-96
ffffffc0502021a0:	e8a2                	sd	s0,80(sp)
ffffffc0502021a2:	e4a6                	sd	s1,72(sp)
ffffffc0502021a4:	ec86                	sd	ra,88(sp)
ffffffc0502021a6:	842a                	mv	s0,a0
ffffffc0502021a8:	84ae                	mv	s1,a1
ffffffc0502021aa:	6e6000ef          	jal	ffffffc050202890 <get_current_cpu_id>
ffffffc0502021ae:	00004797          	auipc	a5,0x4
ffffffc0502021b2:	5c278793          	addi	a5,a5,1474 # ffffffc050206770 <cpu_sync_barrier>
ffffffc0502021b6:	4705                	li	a4,1
ffffffc0502021b8:	06e7a02f          	amoadd.w.aqrl	zero,a4,(a5)
ffffffc0502021bc:	50051063          	bnez	a0,ffffffc0502026bc <main+0x51e>
ffffffc0502021c0:	fc4e                	sd	s3,56(sp)
ffffffc0502021c2:	f852                	sd	s4,48(sp)
ffffffc0502021c4:	f456                	sd	s5,40(sp)
ffffffc0502021c6:	f05a                	sd	s6,32(sp)
ffffffc0502021c8:	ec5e                	sd	s7,24(sp)
ffffffc0502021ca:	e862                	sd	s8,16(sp)
ffffffc0502021cc:	e0ca                	sd	s2,64(sp)
ffffffc0502021ce:	e466                	sd	s9,8(sp)
ffffffc0502021d0:	5f4020ef          	jal	ffffffc0502047c4 <smp_init>
ffffffc0502021d4:	602020ef          	jal	ffffffc0502047d6 <lock_kernel>
ffffffc0502021d8:	088010ef          	jal	ffffffc050203260 <init_memory_manager>
ffffffc0502021dc:	2c8010ef          	jal	ffffffc0502034a4 <init_uva_alloc>
ffffffc0502021e0:	fe0296b7          	lui	a3,0xfe029
ffffffc0502021e4:	06b6                	slli	a3,a3,0xd
ffffffc0502021e6:	00000617          	auipc	a2,0x0
ffffffc0502021ea:	7a660613          	addi	a2,a2,1958 # ffffffc05020298c <port_write>
ffffffc0502021ee:	f0c6b023          	sd	a2,-256(a3) # fffffffffe028f00 <__BSS_END__+0x3fade0a6c8>
ffffffc0502021f2:	8fb6                	mv	t6,a3
ffffffc0502021f4:	8736                	mv	a4,a3
ffffffc0502021f6:	87b6                	mv	a5,a3
ffffffc0502021f8:	00000697          	auipc	a3,0x0
ffffffc0502021fc:	77c68693          	addi	a3,a3,1916 # ffffffc050202974 <port_write_ch>
ffffffc050202200:	f0d73423          	sd	a3,-248(a4) # 51000f08 <per_cpu_stack_size+0x50ffff08>
ffffffc050202204:	00000717          	auipc	a4,0x0
ffffffc050202208:	7a070713          	addi	a4,a4,1952 # ffffffc0502029a4 <port_read_ch>
ffffffc05020220c:	f0e7b823          	sd	a4,-240(a5)
ffffffc050202210:	00000697          	auipc	a3,0x0
ffffffc050202214:	7e668693          	addi	a3,a3,2022 # ffffffc0502029f6 <sd_write>
ffffffc050202218:	00001f17          	auipc	t5,0x1
ffffffc05020221c:	83ef0f13          	addi	t5,t5,-1986 # ffffffc050202a56 <qemu_logging>
ffffffc050202220:	f2dfb023          	sd	a3,-224(t6)
ffffffc050202224:	fff4069b          	addiw	a3,s0,-1
ffffffc050202228:	00000797          	auipc	a5,0x0
ffffffc05020222c:	7a278793          	addi	a5,a5,1954 # ffffffc0502029ca <sd_read>
ffffffc050202230:	16c2                	slli	a3,a3,0x30
ffffffc050202232:	f3efb423          	sd	t5,-216(t6)
ffffffc050202236:	00001e97          	auipc	t4,0x1
ffffffc05020223a:	804e8e93          	addi	t4,t4,-2044 # ffffffc050202a3a <read_fdt>
ffffffc05020223e:	00000f17          	auipc	t5,0x0
ffffffc050202242:	7e4f0f13          	addi	t5,t5,2020 # ffffffc050202a22 <set_timer>
ffffffc050202246:	00001b97          	auipc	s7,0x1
ffffffc05020224a:	8e2b8b93          	addi	s7,s7,-1822 # ffffffc050202b28 <screen_move_cursor>
ffffffc05020224e:	00003e17          	auipc	t3,0x3
ffffffc050202252:	b2ae0e13          	addi	t3,t3,-1238 # ffffffc050204d78 <printk>
ffffffc050202256:	00001c17          	auipc	s8,0x1
ffffffc05020225a:	70cc0c13          	addi	s8,s8,1804 # ffffffc050203962 <do_scheduler>
ffffffc05020225e:	00001a97          	auipc	s5,0x1
ffffffc050202262:	e06a8a93          	addi	s5,s5,-506 # ffffffc050203064 <do_mutex_lock_init>
ffffffc050202266:	00001a17          	auipc	s4,0x1
ffffffc05020226a:	e6ca0a13          	addi	s4,s4,-404 # ffffffc0502030d2 <do_mutex_lock_acquire>
ffffffc05020226e:	00001997          	auipc	s3,0x1
ffffffc050202272:	ee298993          	addi	s3,s3,-286 # ffffffc050203150 <do_mutex_lock_release>
ffffffc050202276:	00001b17          	auipc	s6,0x1
ffffffc05020227a:	924b0b13          	addi	s6,s6,-1756 # ffffffc050202b9a <screen_reflush>
ffffffc05020227e:	f0ffbc23          	sd	a5,-232(t6)
ffffffc050202282:	92c1                	srli	a3,a3,0x30
ffffffc050202284:	f3efb823          	sd	t5,-208(t6)
ffffffc050202288:	f3dfbc23          	sd	t4,-200(t6)
ffffffc05020228c:	f57fb023          	sd	s7,-192(t6)
ffffffc050202290:	f5cfb423          	sd	t3,-184(t6)
ffffffc050202294:	f58fb823          	sd	s8,-176(t6)
ffffffc050202298:	f55fbc23          	sd	s5,-168(t6)
ffffffc05020229c:	f74fb023          	sd	s4,-160(t6)
ffffffc0502022a0:	f73fb423          	sd	s3,-152(t6)
ffffffc0502022a4:	fb6fbc23          	sd	s6,-72(t6)
ffffffc0502022a8:	47fd                	li	a5,31
ffffffc0502022aa:	04d7e263          	bltu	a5,a3,ffffffc0502022ee <main+0x150>
ffffffc0502022ae:	0104179b          	slliw	a5,s0,0x10
ffffffc0502022b2:	03000713          	li	a4,48
ffffffc0502022b6:	4107d79b          	sraiw	a5,a5,0x10
ffffffc0502022ba:	02e787b3          	mul	a5,a5,a4
ffffffc0502022be:	0104961b          	slliw	a2,s1,0x10
ffffffc0502022c2:	4106561b          	sraiw	a2,a2,0x10
ffffffc0502022c6:	00004517          	auipc	a0,0x4
ffffffc0502022ca:	4da50513          	addi	a0,a0,1242 # ffffffc0502067a0 <tasks>
ffffffc0502022ce:	1602                	slli	a2,a2,0x20
ffffffc0502022d0:	1502                	slli	a0,a0,0x20
ffffffc0502022d2:	9201                	srli	a2,a2,0x20
ffffffc0502022d4:	9101                	srli	a0,a0,0x20
ffffffc0502022d6:	4701                	li	a4,0
ffffffc0502022d8:	4681                	li	a3,0
ffffffc0502022da:	1f07f593          	andi	a1,a5,496
ffffffc0502022de:	00b035b3          	snez	a1,a1
ffffffc0502022e2:	83a5                	srli	a5,a5,0x9
ffffffc0502022e4:	9dbd                	addw	a1,a1,a5
ffffffc0502022e6:	1582                	slli	a1,a1,0x20
ffffffc0502022e8:	9181                	srli	a1,a1,0x20
ffffffc0502022ea:	6e0000ef          	jal	ffffffc0502029ca <sd_read>
ffffffc0502022ee:	00004c97          	auipc	s9,0x4
ffffffc0502022f2:	422c8c93          	addi	s9,s9,1058 # ffffffc050206710 <ready_queue>
ffffffc0502022f6:	00004797          	auipc	a5,0x4
ffffffc0502022fa:	42a78793          	addi	a5,a5,1066 # ffffffc050206720 <sleep_queue>
ffffffc0502022fe:	019cb023          	sd	s9,0(s9)
ffffffc050202302:	019cb423          	sd	s9,8(s9)
ffffffc050202306:	e39c                	sd	a5,0(a5)
ffffffc050202308:	e79c                	sd	a5,8(a5)
ffffffc05020230a:	0001b417          	auipc	s0,0x1b
ffffffc05020230e:	e2e40413          	addi	s0,s0,-466 # ffffffc05021d138 <pcb>
ffffffc050202312:	0001b917          	auipc	s2,0x1b
ffffffc050202316:	52690913          	addi	s2,s2,1318 # ffffffc05021d838 <barriers>
ffffffc05020231a:	54fd                	li	s1,-1
ffffffc05020231c:	8522                	mv	a0,s0
ffffffc05020231e:	07000613          	li	a2,112
ffffffc050202322:	4581                	li	a1,0
ffffffc050202324:	32b020ef          	jal	ffffffc050204e4e <memset>
ffffffc050202328:	07040413          	addi	s0,s0,112
ffffffc05020232c:	fc942823          	sw	s1,-48(s0)
ffffffc050202330:	fe8916e3          	bne	s2,s0,ffffffc05020231c <main+0x17e>
ffffffc050202334:	00004797          	auipc	a5,0x4
ffffffc050202338:	4347a783          	lw	a5,1076(a5) # ffffffc050206768 <process_id>
ffffffc05020233c:	00003517          	auipc	a0,0x3
ffffffc050202340:	c5450513          	addi	a0,a0,-940 # ffffffc050204f90 <strcat+0x30>
ffffffc050202344:	0017871b          	addiw	a4,a5,1
ffffffc050202348:	0001b697          	auipc	a3,0x1b
ffffffc05020234c:	eaf6a023          	sw	a5,-352(a3) # ffffffc05021d1e8 <pcb+0xb0>
ffffffc050202350:	00004797          	auipc	a5,0x4
ffffffc050202354:	40e7ac23          	sw	a4,1048(a5) # ffffffc050206768 <process_id>
ffffffc050202358:	371000ef          	jal	ffffffc050202ec8 <load_task_img>
ffffffc05020235c:	842a                	mv	s0,a0
ffffffc05020235e:	3c050763          	beqz	a0,ffffffc05020272c <main+0x58e>
ffffffc050202362:	4505                	li	a0,1
ffffffc050202364:	749000ef          	jal	ffffffc0502032ac <allocPage>
ffffffc050202368:	84aa                	mv	s1,a0
ffffffc05020236a:	4505                	li	a0,1
ffffffc05020236c:	741000ef          	jal	ffffffc0502032ac <allocPage>
ffffffc050202370:	4789                	li	a5,2
ffffffc050202372:	000f05b7          	lui	a1,0xf0
ffffffc050202376:	0001b717          	auipc	a4,0x1b
ffffffc05020237a:	e8f72123          	sw	a5,-382(a4) # ffffffc05021d1f8 <pcb+0xc0>
ffffffc05020237e:	6505                	lui	a0,0x1
ffffffc050202380:	0585                	addi	a1,a1,1 # f0001 <per_cpu_stack_size+0xef001>
ffffffc050202382:	05c2                	slli	a1,a1,0x10
ffffffc050202384:	9526                	add	a0,a0,s1
ffffffc050202386:	8622                	mv	a2,s0
ffffffc050202388:	4781                	li	a5,0
ffffffc05020238a:	4701                	li	a4,0
ffffffc05020238c:	0001b697          	auipc	a3,0x1b
ffffffc050202390:	e1c68693          	addi	a3,a3,-484 # ffffffc05021d1a8 <pcb+0x70>
ffffffc050202394:	0001b817          	auipc	a6,0x1b
ffffffc050202398:	e6083623          	sd	zero,-404(a6) # ffffffc05021d200 <pcb+0xc8>
ffffffc05020239c:	53a000ef          	jal	ffffffc0502028d6 <init_pcb_stack>
ffffffc0502023a0:	008cb783          	ld	a5,8(s9)
ffffffc0502023a4:	00004697          	auipc	a3,0x4
ffffffc0502023a8:	3946b683          	ld	a3,916(a3) # ffffffc050206738 <pid0_stack_core1>
ffffffc0502023ac:	0001b717          	auipc	a4,0x1b
ffffffc0502023b0:	e1c70713          	addi	a4,a4,-484 # ffffffc05021d1c8 <pcb+0x90>
ffffffc0502023b4:	00004617          	auipc	a2,0x4
ffffffc0502023b8:	38c63603          	ld	a2,908(a2) # ffffffc050206740 <pid0_stack_core0>
ffffffc0502023bc:	00ecb423          	sd	a4,8(s9)
ffffffc0502023c0:	0001b597          	auipc	a1,0x1b
ffffffc0502023c4:	e0f5b823          	sd	a5,-496(a1) # ffffffc05021d1d0 <pcb+0x98>
ffffffc0502023c8:	0001b597          	auipc	a1,0x1b
ffffffc0502023cc:	e195b023          	sd	s9,-512(a1) # ffffffc05021d1c8 <pcb+0x90>
ffffffc0502023d0:	e398                	sd	a4,0(a5)
ffffffc0502023d2:	0001b417          	auipc	s0,0x1b
ffffffc0502023d6:	c8640413          	addi	s0,s0,-890 # ffffffc05021d058 <pid0_pcb>
ffffffc0502023da:	0001b717          	auipc	a4,0x1b
ffffffc0502023de:	c9e70713          	addi	a4,a4,-866 # ffffffc05021d078 <pid0_pcb+0x20>
ffffffc0502023e2:	0001b797          	auipc	a5,0x1b
ffffffc0502023e6:	d0678793          	addi	a5,a5,-762 # ffffffc05021d0e8 <pid0_pcb+0x90>
ffffffc0502023ea:	f834                	sd	a3,112(s0)
ffffffc0502023ec:	4685                	li	a3,1
ffffffc0502023ee:	e010                	sd	a2,0(s0)
ffffffc0502023f0:	e85c                	sd	a5,144(s0)
ffffffc0502023f2:	ec5c                	sd	a5,152(s0)
ffffffc0502023f4:	0001b617          	auipc	a2,0x1b
ffffffc0502023f8:	ca062223          	sw	zero,-860(a2) # ffffffc05021d098 <pid0_pcb+0x40>
ffffffc0502023fc:	0001b617          	auipc	a2,0x1b
ffffffc050202400:	d0062623          	sw	zero,-756(a2) # ffffffc05021d108 <pid0_pcb+0xb0>
ffffffc050202404:	c834                	sw	a3,80(s0)
ffffffc050202406:	0cd42023          	sw	a3,192(s0)
ffffffc05020240a:	f018                	sd	a4,32(s0)
ffffffc05020240c:	f418                	sd	a4,40(s0)
ffffffc05020240e:	482000ef          	jal	ffffffc050202890 <get_current_cpu_id>
ffffffc050202412:	07000793          	li	a5,112
ffffffc050202416:	02f507b3          	mul	a5,a0,a5
ffffffc05020241a:	00878233          	add	tp,a5,s0
ffffffc05020241e:	8212                	mv	tp,tp
ffffffc050202420:	fe0297b7          	lui	a5,0xfe029
ffffffc050202424:	07b6                	slli	a5,a5,0xd
ffffffc050202426:	f3878793          	addi	a5,a5,-200 # fffffffffe028f38 <__BSS_END__+0x3fade0a700>
ffffffc05020242a:	639c                	ld	a5,0(a5)
ffffffc05020242c:	4701                	li	a4,0
ffffffc05020242e:	4681                	li	a3,0
ffffffc050202430:	4601                	li	a2,0
ffffffc050202432:	4581                	li	a1,0
ffffffc050202434:	4501                	li	a0,0
ffffffc050202436:	9782                	jalr	a5
ffffffc050202438:	00004797          	auipc	a5,0x4
ffffffc05020243c:	34a7b823          	sd	a0,848(a5) # ffffffc050206788 <time_base>
ffffffc050202440:	3b7000ef          	jal	ffffffc050202ff6 <init_locks>
ffffffc050202444:	397010ef          	jal	ffffffc050203fda <init_barriers>
ffffffc050202448:	4cf010ef          	jal	ffffffc050204116 <init_conditions>
ffffffc05020244c:	663010ef          	jal	ffffffc0502042ae <init_mbox>
ffffffc050202450:	00003517          	auipc	a0,0x3
ffffffc050202454:	b7850513          	addi	a0,a0,-1160 # ffffffc050204fc8 <strcat+0x68>
ffffffc050202458:	121020ef          	jal	ffffffc050204d78 <printk>
ffffffc05020245c:	00003517          	auipc	a0,0x3
ffffffc050202460:	b9450513          	addi	a0,a0,-1132 # ffffffc050204ff0 <strcat+0x90>
ffffffc050202464:	115020ef          	jal	ffffffc050204d78 <printk>
ffffffc050202468:	000407b7          	lui	a5,0x40
ffffffc05020246c:	1007a073          	csrs	sstatus,a5
ffffffc050202470:	1d7000ef          	jal	ffffffc050202e46 <init_exception>
ffffffc050202474:	00003517          	auipc	a0,0x3
ffffffc050202478:	bb450513          	addi	a0,a0,-1100 # ffffffc050205028 <strcat+0xc8>
ffffffc05020247c:	0fd020ef          	jal	ffffffc050204d78 <printk>
ffffffc050202480:	0001c717          	auipc	a4,0x1c
ffffffc050202484:	0f873823          	sd	s8,240(a4) # ffffffc05021e570 <syscall+0x38>
ffffffc050202488:	0001c717          	auipc	a4,0x1c
ffffffc05020248c:	17773023          	sd	s7,352(a4) # ffffffc05021e5e8 <syscall+0xb0>
ffffffc050202490:	0001c717          	auipc	a4,0x1c
ffffffc050202494:	17673023          	sd	s6,352(a4) # ffffffc05021e5f0 <syscall+0xb8>
ffffffc050202498:	0001c717          	auipc	a4,0x1c
ffffffc05020249c:	1f573023          	sd	s5,480(a4) # ffffffc05021e678 <syscall+0x140>
ffffffc0502024a0:	00001f17          	auipc	t5,0x1
ffffffc0502024a4:	56cf0f13          	addi	t5,t5,1388 # ffffffc050203a0c <do_sleep>
ffffffc0502024a8:	00000e97          	auipc	t4,0x0
ffffffc0502024ac:	6c4e8e93          	addi	t4,t4,1732 # ffffffc050202b6c <screen_write>
ffffffc0502024b0:	00002e17          	auipc	t3,0x2
ffffffc0502024b4:	29ce0e13          	addi	t3,t3,668 # ffffffc05020474c <get_time_base>
ffffffc0502024b8:	00002317          	auipc	t1,0x2
ffffffc0502024bc:	26c30313          	addi	t1,t1,620 # ffffffc050204724 <get_ticks>
ffffffc0502024c0:	00001897          	auipc	a7,0x1
ffffffc0502024c4:	5d688893          	addi	a7,a7,1494 # ffffffc050203a96 <do_exec>
ffffffc0502024c8:	00002817          	auipc	a6,0x2
ffffffc0502024cc:	83280813          	addi	a6,a6,-1998 # ffffffc050203cfa <do_exit>
ffffffc0502024d0:	00002517          	auipc	a0,0x2
ffffffc0502024d4:	86650513          	addi	a0,a0,-1946 # ffffffc050203d36 <do_kill>
ffffffc0502024d8:	00002797          	auipc	a5,0x2
ffffffc0502024dc:	93878793          	addi	a5,a5,-1736 # ffffffc050203e10 <do_waitpid>
ffffffc0502024e0:	00002597          	auipc	a1,0x2
ffffffc0502024e4:	a6858593          	addi	a1,a1,-1432 # ffffffc050203f48 <do_process_show>
ffffffc0502024e8:	00002617          	auipc	a2,0x2
ffffffc0502024ec:	aec60613          	addi	a2,a2,-1300 # ffffffc050203fd4 <do_getpid>
ffffffc0502024f0:	00000697          	auipc	a3,0x0
ffffffc0502024f4:	3c268693          	addi	a3,a3,962 # ffffffc0502028b2 <bios_getchar>
ffffffc0502024f8:	00000717          	auipc	a4,0x0
ffffffc0502024fc:	77270713          	addi	a4,a4,1906 # ffffffc050202c6a <screen_clear>
ffffffc050202500:	0001cf97          	auipc	t6,0x1c
ffffffc050202504:	194fb023          	sd	s4,384(t6) # ffffffc05021e680 <syscall+0x148>
ffffffc050202508:	0001cf97          	auipc	t6,0x1c
ffffffc05020250c:	193fb023          	sd	s3,384(t6) # ffffffc05021e688 <syscall+0x150>
ffffffc050202510:	00000297          	auipc	t0,0x0
ffffffc050202514:	57628293          	addi	t0,t0,1398 # ffffffc050202a86 <screen_write_ch>
ffffffc050202518:	00002f97          	auipc	t6,0x2
ffffffc05020251c:	aecf8f93          	addi	t6,t6,-1300 # ffffffc050204004 <do_barrier_init>
ffffffc050202520:	0001c397          	auipc	t2,0x1c
ffffffc050202524:	03e3b423          	sd	t5,40(t2) # ffffffc05021e548 <syscall+0x10>
ffffffc050202528:	0001c397          	auipc	t2,0x1c
ffffffc05020252c:	0bd3b823          	sd	t4,176(t2) # ffffffc05021e5d8 <syscall+0xa0>
ffffffc050202530:	00002f17          	auipc	t5,0x2
ffffffc050202534:	b3cf0f13          	addi	t5,t5,-1220 # ffffffc05020406c <do_barrier_wait>
ffffffc050202538:	00002e97          	auipc	t4,0x2
ffffffc05020253c:	bb6e8e93          	addi	t4,t4,-1098 # ffffffc0502040ee <do_barrier_destroy>
ffffffc050202540:	0001c397          	auipc	t2,0x1c
ffffffc050202544:	0fc3b423          	sd	t3,232(t2) # ffffffc05021e628 <syscall+0xf0>
ffffffc050202548:	0001c397          	auipc	t2,0x1c
ffffffc05020254c:	0e63b423          	sd	t1,232(t2) # ffffffc05021e630 <syscall+0xf8>
ffffffc050202550:	00002e17          	auipc	t3,0x2
ffffffc050202554:	be8e0e13          	addi	t3,t3,-1048 # ffffffc050204138 <do_condition_init>
ffffffc050202558:	00002317          	auipc	t1,0x2
ffffffc05020255c:	c4030313          	addi	t1,t1,-960 # ffffffc050204198 <do_condition_wait>
ffffffc050202560:	0001c397          	auipc	t2,0x1c
ffffffc050202564:	fd13bc23          	sd	a7,-40(t2) # ffffffc05021e538 <syscall>
ffffffc050202568:	0001c397          	auipc	t2,0x1c
ffffffc05020256c:	fd03bc23          	sd	a6,-40(t2) # ffffffc05021e540 <syscall+0x8>
ffffffc050202570:	00002897          	auipc	a7,0x2
ffffffc050202574:	c8088893          	addi	a7,a7,-896 # ffffffc0502041f0 <do_condition_signal>
ffffffc050202578:	00002817          	auipc	a6,0x2
ffffffc05020257c:	cc280813          	addi	a6,a6,-830 # ffffffc05020423a <do_condition_broadcast>
ffffffc050202580:	0001c397          	auipc	t2,0x1c
ffffffc050202584:	fca3b823          	sd	a0,-48(t2) # ffffffc05021e550 <syscall+0x18>
ffffffc050202588:	0001c397          	auipc	t2,0x1c
ffffffc05020258c:	fcf3b823          	sd	a5,-48(t2) # ffffffc05021e558 <syscall+0x20>
ffffffc050202590:	00002517          	auipc	a0,0x2
ffffffc050202594:	cfe50513          	addi	a0,a0,-770 # ffffffc05020428e <do_condition_destroy>
ffffffc050202598:	00002797          	auipc	a5,0x2
ffffffc05020259c:	d6078793          	addi	a5,a5,-672 # ffffffc0502042f8 <do_mbox_open>
ffffffc0502025a0:	0001c397          	auipc	t2,0x1c
ffffffc0502025a4:	fcb3b023          	sd	a1,-64(t2) # ffffffc05021e560 <syscall+0x28>
ffffffc0502025a8:	0001c397          	auipc	t2,0x1c
ffffffc0502025ac:	fcc3b023          	sd	a2,-64(t2) # ffffffc05021e568 <syscall+0x30>
ffffffc0502025b0:	00002597          	auipc	a1,0x2
ffffffc0502025b4:	e5058593          	addi	a1,a1,-432 # ffffffc050204400 <do_mbox_close>
ffffffc0502025b8:	00002617          	auipc	a2,0x2
ffffffc0502025bc:	ea260613          	addi	a2,a2,-350 # ffffffc05020445a <do_mbox_send>
ffffffc0502025c0:	0001c397          	auipc	t2,0x1c
ffffffc0502025c4:	02d3b023          	sd	a3,32(t2) # ffffffc05021e5e0 <syscall+0xa8>
ffffffc0502025c8:	0001c397          	auipc	t2,0x1c
ffffffc0502025cc:	02e3b823          	sd	a4,48(t2) # ffffffc05021e5f8 <syscall+0xc0>
ffffffc0502025d0:	00002697          	auipc	a3,0x2
ffffffc0502025d4:	fd868693          	addi	a3,a3,-40 # ffffffc0502045a8 <do_mbox_recv>
ffffffc0502025d8:	00002717          	auipc	a4,0x2
ffffffc0502025dc:	10270713          	addi	a4,a4,258 # ffffffc0502046da <do_taskset>
ffffffc0502025e0:	0001c397          	auipc	t2,0x1c
ffffffc0502025e4:	1e53b023          	sd	t0,480(t2) # ffffffc05021e7c0 <syscall+0x288>
ffffffc0502025e8:	0001c297          	auipc	t0,0x1c
ffffffc0502025ec:	0bf2b823          	sd	t6,176(t0) # ffffffc05021e698 <syscall+0x160>
ffffffc0502025f0:	0001cf97          	auipc	t6,0x1c
ffffffc0502025f4:	0befb823          	sd	t5,176(t6) # ffffffc05021e6a0 <syscall+0x168>
ffffffc0502025f8:	0001cf17          	auipc	t5,0x1c
ffffffc0502025fc:	0bdf3823          	sd	t4,176(t5) # ffffffc05021e6a8 <syscall+0x170>
ffffffc050202600:	0001ce97          	auipc	t4,0x1c
ffffffc050202604:	0bceb823          	sd	t3,176(t4) # ffffffc05021e6b0 <syscall+0x178>
ffffffc050202608:	0001ce17          	auipc	t3,0x1c
ffffffc05020260c:	0a6e3823          	sd	t1,176(t3) # ffffffc05021e6b8 <syscall+0x180>
ffffffc050202610:	0001c317          	auipc	t1,0x1c
ffffffc050202614:	0b133823          	sd	a7,176(t1) # ffffffc05021e6c0 <syscall+0x188>
ffffffc050202618:	0001c897          	auipc	a7,0x1c
ffffffc05020261c:	0b08b823          	sd	a6,176(a7) # ffffffc05021e6c8 <syscall+0x190>
ffffffc050202620:	0001c817          	auipc	a6,0x1c
ffffffc050202624:	0aa83823          	sd	a0,176(a6) # ffffffc05021e6d0 <syscall+0x198>
ffffffc050202628:	0001c517          	auipc	a0,0x1c
ffffffc05020262c:	0ab53c23          	sd	a1,184(a0) # ffffffc05021e6e0 <syscall+0x1a8>
ffffffc050202630:	0001c517          	auipc	a0,0x1c
ffffffc050202634:	0af53423          	sd	a5,168(a0) # ffffffc05021e6d8 <syscall+0x1a0>
ffffffc050202638:	0001c597          	auipc	a1,0x1c
ffffffc05020263c:	0ac5b823          	sd	a2,176(a1) # ffffffc05021e6e8 <syscall+0x1b0>
ffffffc050202640:	0001c617          	auipc	a2,0x1c
ffffffc050202644:	0ad63823          	sd	a3,176(a2) # ffffffc05021e6f0 <syscall+0x1b8>
ffffffc050202648:	0001c697          	auipc	a3,0x1c
ffffffc05020264c:	18e6b023          	sd	a4,384(a3) # ffffffc05021e7c8 <syscall+0x290>
ffffffc050202650:	0001c717          	auipc	a4,0x1c
ffffffc050202654:	0af73823          	sd	a5,176(a4) # ffffffc05021e700 <syscall+0x1c8>
ffffffc050202658:	00001797          	auipc	a5,0x1
ffffffc05020265c:	30478793          	addi	a5,a5,772 # ffffffc05020395c <shm_page_get>
ffffffc050202660:	0001c717          	auipc	a4,0x1c
ffffffc050202664:	0af73823          	sd	a5,176(a4) # ffffffc05021e710 <syscall+0x1d8>
ffffffc050202668:	00003517          	auipc	a0,0x3
ffffffc05020266c:	a0050513          	addi	a0,a0,-1536 # ffffffc050205068 <strcat+0x108>
ffffffc050202670:	00001797          	auipc	a5,0x1
ffffffc050202674:	2f078793          	addi	a5,a5,752 # ffffffc050203960 <shm_page_dt>
ffffffc050202678:	0001c717          	auipc	a4,0x1c
ffffffc05020267c:	08f73823          	sd	a5,144(a4) # ffffffc05021e708 <syscall+0x1d0>
ffffffc050202680:	6f8020ef          	jal	ffffffc050204d78 <printk>
ffffffc050202684:	64a000ef          	jal	ffffffc050202cce <init_screen>
ffffffc050202688:	00003517          	auipc	a0,0x3
ffffffc05020268c:	a1050513          	addi	a0,a0,-1520 # ffffffc050205098 <strcat+0x138>
ffffffc050202690:	6e8020ef          	jal	ffffffc050204d78 <printk>
ffffffc050202694:	1fc000ef          	jal	ffffffc050202890 <get_current_cpu_id>
ffffffc050202698:	0005059b          	sext.w	a1,a0
ffffffc05020269c:	00003517          	auipc	a0,0x3
ffffffc0502026a0:	a2c50513          	addi	a0,a0,-1492 # ffffffc0502050c8 <strcat+0x168>
ffffffc0502026a4:	6d4020ef          	jal	ffffffc050204d78 <printk>
ffffffc0502026a8:	0b8000ef          	jal	ffffffc050202760 <disable_interrupt>
ffffffc0502026ac:	10500073          	wfi
ffffffc0502026b0:	10500073          	wfi
ffffffc0502026b4:	bfe5                	j	ffffffc0502026ac <main+0x50e>
ffffffc0502026b6:	12c020ef          	jal	ffffffc0502047e2 <unlock_kernel>
ffffffc0502026ba:	0001                	nop
ffffffc0502026bc:	11a020ef          	jal	ffffffc0502047d6 <lock_kernel>
ffffffc0502026c0:	00004797          	auipc	a5,0x4
ffffffc0502026c4:	0b47a783          	lw	a5,180(a5) # ffffffc050206774 <is_init_finished>
ffffffc0502026c8:	d7fd                	beqz	a5,ffffffc0502026b6 <main+0x518>
ffffffc0502026ca:	0220000f          	fence	r,r
ffffffc0502026ce:	0001b217          	auipc	tp,0x1b
ffffffc0502026d2:	9fa20213          	addi	tp,tp,-1542 # ffffffc05021d0c8 <pid0_pcb+0x70>
ffffffc0502026d6:	8212                	mv	tp,tp
ffffffc0502026d8:	00003517          	auipc	a0,0x3
ffffffc0502026dc:	a2050513          	addi	a0,a0,-1504 # ffffffc0502050f8 <strcat+0x198>
ffffffc0502026e0:	698020ef          	jal	ffffffc050204d78 <printk>
ffffffc0502026e4:	000407b7          	lui	a5,0x40
ffffffc0502026e8:	1007a073          	csrs	sstatus,a5
ffffffc0502026ec:	00003517          	auipc	a0,0x3
ffffffc0502026f0:	a3450513          	addi	a0,a0,-1484 # ffffffc050205120 <strcat+0x1c0>
ffffffc0502026f4:	684020ef          	jal	ffffffc050204d78 <printk>
ffffffc0502026f8:	0ea020ef          	jal	ffffffc0502047e2 <unlock_kernel>
ffffffc0502026fc:	028020ef          	jal	ffffffc050204724 <get_ticks>
ffffffc050202700:	fe0297b7          	lui	a5,0xfe029
ffffffc050202704:	07b6                	slli	a5,a5,0xd
ffffffc050202706:	f307b803          	ld	a6,-208(a5) # fffffffffe028f30 <__BSS_END__+0x3fade0a6f8>
ffffffc05020270a:	00025737          	lui	a4,0x25
ffffffc05020270e:	9f070713          	addi	a4,a4,-1552 # 249f0 <per_cpu_stack_size+0x239f0>
ffffffc050202712:	953a                	add	a0,a0,a4
ffffffc050202714:	4681                	li	a3,0
ffffffc050202716:	4701                	li	a4,0
ffffffc050202718:	4601                	li	a2,0
ffffffc05020271a:	4581                	li	a1,0
ffffffc05020271c:	9802                	jalr	a6
ffffffc05020271e:	17a000ef          	jal	ffffffc050202898 <setup_exception>
ffffffc050202722:	022000ef          	jal	ffffffc050202744 <enable_preempt>
ffffffc050202726:	10500073          	wfi
ffffffc05020272a:	bfe5                	j	ffffffc050202722 <main+0x584>
ffffffc05020272c:	00003597          	auipc	a1,0x3
ffffffc050202730:	86458593          	addi	a1,a1,-1948 # ffffffc050204f90 <strcat+0x30>
ffffffc050202734:	00003517          	auipc	a0,0x3
ffffffc050202738:	86c50513          	addi	a0,a0,-1940 # ffffffc050204fa0 <strcat+0x40>
ffffffc05020273c:	63c020ef          	jal	ffffffc050204d78 <printk>
ffffffc050202740:	b10d                	j	ffffffc050202362 <main+0x1c4>
	...

ffffffc050202744 <enable_preempt>:
ffffffc050202744:	fff04293          	not	t0,zero
ffffffc050202748:	1042a073          	csrs	sie,t0
ffffffc05020274c:	8082                	ret
ffffffc05020274e:	0001                	nop

ffffffc050202750 <disable_preempt>:
ffffffc050202750:	10401073          	csrw	sie,zero
ffffffc050202754:	8082                	ret
ffffffc050202756:	0001                	nop

ffffffc050202758 <enable_interrupt>:
ffffffc050202758:	4289                	li	t0,2
ffffffc05020275a:	1002a073          	csrs	sstatus,t0
ffffffc05020275e:	8082                	ret

ffffffc050202760 <disable_interrupt>:
ffffffc050202760:	4289                	li	t0,2
ffffffc050202762:	1002b073          	csrc	sstatus,t0
ffffffc050202766:	8082                	ret

ffffffc050202768 <switch_to>:
ffffffc050202768:	7159                	addi	sp,sp,-112
ffffffc05020276a:	e006                	sd	ra,0(sp)
ffffffc05020276c:	e822                	sd	s0,16(sp)
ffffffc05020276e:	ec26                	sd	s1,24(sp)
ffffffc050202770:	f04a                	sd	s2,32(sp)
ffffffc050202772:	f44e                	sd	s3,40(sp)
ffffffc050202774:	f852                	sd	s4,48(sp)
ffffffc050202776:	fc56                	sd	s5,56(sp)
ffffffc050202778:	e0da                	sd	s6,64(sp)
ffffffc05020277a:	e4de                	sd	s7,72(sp)
ffffffc05020277c:	e8e2                	sd	s8,80(sp)
ffffffc05020277e:	ece6                	sd	s9,88(sp)
ffffffc050202780:	f0ea                	sd	s10,96(sp)
ffffffc050202782:	f4ee                	sd	s11,104(sp)
ffffffc050202784:	00253023          	sd	sp,0(a0)
ffffffc050202788:	0005b103          	ld	sp,0(a1)
ffffffc05020278c:	6082                	ld	ra,0(sp)
ffffffc05020278e:	6442                	ld	s0,16(sp)
ffffffc050202790:	64e2                	ld	s1,24(sp)
ffffffc050202792:	7902                	ld	s2,32(sp)
ffffffc050202794:	79a2                	ld	s3,40(sp)
ffffffc050202796:	7a42                	ld	s4,48(sp)
ffffffc050202798:	7ae2                	ld	s5,56(sp)
ffffffc05020279a:	6b06                	ld	s6,64(sp)
ffffffc05020279c:	6ba6                	ld	s7,72(sp)
ffffffc05020279e:	6c46                	ld	s8,80(sp)
ffffffc0502027a0:	6ce6                	ld	s9,88(sp)
ffffffc0502027a2:	7d06                	ld	s10,96(sp)
ffffffc0502027a4:	7da6                	ld	s11,104(sp)
ffffffc0502027a6:	6165                	addi	sp,sp,112
ffffffc0502027a8:	822e                	mv	tp,a1
ffffffc0502027aa:	8082                	ret

ffffffc0502027ac <ret_from_exception>:
ffffffc0502027ac:	036020ef          	jal	ffffffc0502047e2 <unlock_kernel>
ffffffc0502027b0:	00013003          	ld	zero,0(sp)
ffffffc0502027b4:	60a2                	ld	ra,8(sp)
ffffffc0502027b6:	7202                	ld	tp,32(sp)
ffffffc0502027b8:	72a2                	ld	t0,40(sp)
ffffffc0502027ba:	7342                	ld	t1,48(sp)
ffffffc0502027bc:	73e2                	ld	t2,56(sp)
ffffffc0502027be:	6406                	ld	s0,64(sp)
ffffffc0502027c0:	64a6                	ld	s1,72(sp)
ffffffc0502027c2:	6546                	ld	a0,80(sp)
ffffffc0502027c4:	65e6                	ld	a1,88(sp)
ffffffc0502027c6:	7606                	ld	a2,96(sp)
ffffffc0502027c8:	76a6                	ld	a3,104(sp)
ffffffc0502027ca:	7746                	ld	a4,112(sp)
ffffffc0502027cc:	77e6                	ld	a5,120(sp)
ffffffc0502027ce:	680a                	ld	a6,128(sp)
ffffffc0502027d0:	68aa                	ld	a7,136(sp)
ffffffc0502027d2:	694a                	ld	s2,144(sp)
ffffffc0502027d4:	69ea                	ld	s3,152(sp)
ffffffc0502027d6:	7a0a                	ld	s4,160(sp)
ffffffc0502027d8:	7aaa                	ld	s5,168(sp)
ffffffc0502027da:	7b4a                	ld	s6,176(sp)
ffffffc0502027dc:	7bea                	ld	s7,184(sp)
ffffffc0502027de:	6c0e                	ld	s8,192(sp)
ffffffc0502027e0:	6cae                	ld	s9,200(sp)
ffffffc0502027e2:	6d4e                	ld	s10,208(sp)
ffffffc0502027e4:	6dee                	ld	s11,216(sp)
ffffffc0502027e6:	6e12                	ld	t3,256(sp)
ffffffc0502027e8:	6eb2                	ld	t4,264(sp)
ffffffc0502027ea:	6f52                	ld	t5,272(sp)
ffffffc0502027ec:	6ff2                	ld	t6,280(sp)
ffffffc0502027ee:	100e1073          	csrw	sstatus,t3
ffffffc0502027f2:	7e0e                	ld	t3,224(sp)
ffffffc0502027f4:	141e9073          	csrw	sepc,t4
ffffffc0502027f8:	7eae                	ld	t4,232(sp)
ffffffc0502027fa:	143f1073          	csrw	stval,t5
ffffffc0502027fe:	7f4e                	ld	t5,240(sp)
ffffffc050202800:	142f9073          	csrw	scause,t6
ffffffc050202804:	7fee                	ld	t6,248(sp)
ffffffc050202806:	6115                	addi	sp,sp,288
ffffffc050202808:	00223023          	sd	sp,0(tp) # 0 <per_cpu_stack_size-0x1000>
ffffffc05020280c:	00823103          	ld	sp,8(tp) # 8 <per_cpu_stack_size-0xff8>
ffffffc050202810:	10200073          	sret

ffffffc050202814 <exception_handler_entry>:
ffffffc050202814:	00223423          	sd	sp,8(tp) # 8 <per_cpu_stack_size-0xff8>
ffffffc050202818:	00023103          	ld	sp,0(tp) # 0 <per_cpu_stack_size-0x1000>
ffffffc05020281c:	712d                	addi	sp,sp,-288
ffffffc05020281e:	e002                	sd	zero,0(sp)
ffffffc050202820:	e406                	sd	ra,8(sp)
ffffffc050202822:	f012                	sd	tp,32(sp)
ffffffc050202824:	ec0e                	sd	gp,24(sp)
ffffffc050202826:	f416                	sd	t0,40(sp)
ffffffc050202828:	f81a                	sd	t1,48(sp)
ffffffc05020282a:	fc1e                	sd	t2,56(sp)
ffffffc05020282c:	00823283          	ld	t0,8(tp) # 8 <per_cpu_stack_size-0xff8>
ffffffc050202830:	e816                	sd	t0,16(sp)
ffffffc050202832:	e0a2                	sd	s0,64(sp)
ffffffc050202834:	e4a6                	sd	s1,72(sp)
ffffffc050202836:	e8aa                	sd	a0,80(sp)
ffffffc050202838:	ecae                	sd	a1,88(sp)
ffffffc05020283a:	f0b2                	sd	a2,96(sp)
ffffffc05020283c:	f4b6                	sd	a3,104(sp)
ffffffc05020283e:	f8ba                	sd	a4,112(sp)
ffffffc050202840:	fcbe                	sd	a5,120(sp)
ffffffc050202842:	e142                	sd	a6,128(sp)
ffffffc050202844:	e546                	sd	a7,136(sp)
ffffffc050202846:	e94a                	sd	s2,144(sp)
ffffffc050202848:	ed4e                	sd	s3,152(sp)
ffffffc05020284a:	f152                	sd	s4,160(sp)
ffffffc05020284c:	f556                	sd	s5,168(sp)
ffffffc05020284e:	f95a                	sd	s6,176(sp)
ffffffc050202850:	fd5e                	sd	s7,184(sp)
ffffffc050202852:	e1e2                	sd	s8,192(sp)
ffffffc050202854:	e5e6                	sd	s9,200(sp)
ffffffc050202856:	e9ea                	sd	s10,208(sp)
ffffffc050202858:	edee                	sd	s11,216(sp)
ffffffc05020285a:	f1f2                	sd	t3,224(sp)
ffffffc05020285c:	f5f6                	sd	t4,232(sp)
ffffffc05020285e:	f9fa                	sd	t5,240(sp)
ffffffc050202860:	fdfe                	sd	t6,248(sp)
ffffffc050202862:	100022f3          	csrr	t0,sstatus
ffffffc050202866:	e216                	sd	t0,256(sp)
ffffffc050202868:	14102373          	csrr	t1,sepc
ffffffc05020286c:	e61a                	sd	t1,264(sp)
ffffffc05020286e:	143023f3          	csrr	t2,stval
ffffffc050202872:	ea1e                	sd	t2,272(sp)
ffffffc050202874:	14202e73          	csrr	t3,scause
ffffffc050202878:	ee72                	sd	t3,280(sp)
ffffffc05020287a:	75d010ef          	jal	ffffffc0502047d6 <lock_kernel>
ffffffc05020287e:	850a                	mv	a0,sp
ffffffc050202880:	143025f3          	csrr	a1,stval
ffffffc050202884:	14202673          	csrr	a2,scause
ffffffc050202888:	5a4000ef          	jal	ffffffc050202e2c <interrupt_helper>
ffffffc05020288c:	b705                	j	ffffffc0502027ac <ret_from_exception>
	...

ffffffc050202890 <get_current_cpu_id>:
ffffffc050202890:	f1402573          	csrr	a0,mhartid
ffffffc050202894:	8082                	ret
	...

ffffffc050202898 <setup_exception>:
ffffffc050202898:	00000297          	auipc	t0,0x0
ffffffc05020289c:	f7c28293          	addi	t0,t0,-132 # ffffffc050202814 <exception_handler_entry>
ffffffc0502028a0:	10529073          	csrw	stvec,t0
ffffffc0502028a4:	14401073          	csrw	sip,zero
ffffffc0502028a8:	4289                	li	t0,2
ffffffc0502028aa:	1002a073          	csrs	sstatus,t0
ffffffc0502028ae:	8082                	ret
ffffffc0502028b0:	0001                	nop

ffffffc0502028b2 <bios_getchar>:
ffffffc0502028b2:	fe0297b7          	lui	a5,0xfe029
ffffffc0502028b6:	07b6                	slli	a5,a5,0xd
ffffffc0502028b8:	f1078793          	addi	a5,a5,-240 # fffffffffe028f10 <__BSS_END__+0x3fade0a6d8>
ffffffc0502028bc:	639c                	ld	a5,0(a5)
ffffffc0502028be:	1141                	addi	sp,sp,-16
ffffffc0502028c0:	e406                	sd	ra,8(sp)
ffffffc0502028c2:	4701                	li	a4,0
ffffffc0502028c4:	4681                	li	a3,0
ffffffc0502028c6:	4601                	li	a2,0
ffffffc0502028c8:	4581                	li	a1,0
ffffffc0502028ca:	4501                	li	a0,0
ffffffc0502028cc:	9782                	jalr	a5
ffffffc0502028ce:	60a2                	ld	ra,8(sp)
ffffffc0502028d0:	2501                	sext.w	a0,a0
ffffffc0502028d2:	0141                	addi	sp,sp,16
ffffffc0502028d4:	8082                	ret

ffffffc0502028d6 <init_pcb_stack>:
ffffffc0502028d6:	715d                	addi	sp,sp,-80
ffffffc0502028d8:	fc26                	sd	s1,56(sp)
ffffffc0502028da:	f84a                	sd	s2,48(sp)
ffffffc0502028dc:	f44e                	sd	s3,40(sp)
ffffffc0502028de:	892e                	mv	s2,a1
ffffffc0502028e0:	89b2                	mv	s3,a2
ffffffc0502028e2:	84aa                	mv	s1,a0
ffffffc0502028e4:	12000613          	li	a2,288
ffffffc0502028e8:	ee050513          	addi	a0,a0,-288
ffffffc0502028ec:	4581                	li	a1,0
ffffffc0502028ee:	e0a2                	sd	s0,64(sp)
ffffffc0502028f0:	ec2a                	sd	a0,24(sp)
ffffffc0502028f2:	8436                	mv	s0,a3
ffffffc0502028f4:	e83a                	sd	a4,16(sp)
ffffffc0502028f6:	e43e                	sd	a5,8(sp)
ffffffc0502028f8:	e486                	sd	ra,72(sp)
ffffffc0502028fa:	554020ef          	jal	ffffffc050204e4e <memset>
ffffffc0502028fe:	6562                	ld	a0,24(sp)
ffffffc050202900:	6742                	ld	a4,16(sp)
ffffffc050202902:	67a2                	ld	a5,8(sp)
ffffffc050202904:	01253823          	sd	s2,16(a0)
ffffffc050202908:	f100                	sd	s0,32(a0)
ffffffc05020290a:	e938                	sd	a4,80(a0)
ffffffc05020290c:	ed3c                	sd	a5,88(a0)
ffffffc05020290e:	11353423          	sd	s3,264(a0)
ffffffc050202912:	100027f3          	csrr	a5,sstatus
ffffffc050202916:	edf7f793          	andi	a5,a5,-289
ffffffc05020291a:	0207e793          	ori	a5,a5,32
ffffffc05020291e:	10f53023          	sd	a5,256(a0)
ffffffc050202922:	07000613          	li	a2,112
ffffffc050202926:	e7048513          	addi	a0,s1,-400
ffffffc05020292a:	4581                	li	a1,0
ffffffc05020292c:	e42a                	sd	a0,8(sp)
ffffffc05020292e:	520020ef          	jal	ffffffc050204e4e <memset>
ffffffc050202932:	6522                	ld	a0,8(sp)
ffffffc050202934:	00000797          	auipc	a5,0x0
ffffffc050202938:	e7878793          	addi	a5,a5,-392 # ffffffc0502027ac <ret_from_exception>
ffffffc05020293c:	e6f4b823          	sd	a5,-400(s1)
ffffffc050202940:	e008                	sd	a0,0(s0)
ffffffc050202942:	01243423          	sd	s2,8(s0)
ffffffc050202946:	478d                	li	a5,3
ffffffc050202948:	00020463          	beqz	tp,ffffffc050202950 <init_pcb_stack+0x7a>
ffffffc05020294c:	06822783          	lw	a5,104(tp) # 68 <per_cpu_stack_size-0xf98>
ffffffc050202950:	577d                	li	a4,-1
ffffffc050202952:	60a6                	ld	ra,72(sp)
ffffffc050202954:	d43c                	sw	a5,104(s0)
ffffffc050202956:	d478                	sw	a4,108(s0)
ffffffc050202958:	6406                	ld	s0,64(sp)
ffffffc05020295a:	74e2                	ld	s1,56(sp)
ffffffc05020295c:	7942                	ld	s2,48(sp)
ffffffc05020295e:	79a2                	ld	s3,40(sp)
ffffffc050202960:	6161                	addi	sp,sp,80
ffffffc050202962:	8082                	ret

ffffffc050202964 <cancel_identity_mapping>:
ffffffc050202964:	fc0517b7          	lui	a5,0xfc051
ffffffc050202968:	07b2                	slli	a5,a5,0xc
ffffffc05020296a:	0007b023          	sd	zero,0(a5) # fffffffffc051000 <__BSS_END__+0x3fabe327c8>
ffffffc05020296e:	12000073          	sfence.vma
ffffffc050202972:	8082                	ret

ffffffc050202974 <port_write_ch>:
ffffffc050202974:	ffc05337          	lui	t1,0xffc05
ffffffc050202978:	0355                	addi	t1,t1,21 # ffffffffffc05015 <__BSS_END__+0x3faf9e67dd>
ffffffc05020297a:	0342                	slli	t1,t1,0x10
ffffffc05020297c:	4885                	li	a7,1
ffffffc05020297e:	4801                	li	a6,0
ffffffc050202980:	4781                	li	a5,0
ffffffc050202982:	4701                	li	a4,0
ffffffc050202984:	4681                	li	a3,0
ffffffc050202986:	4601                	li	a2,0
ffffffc050202988:	4581                	li	a1,0
ffffffc05020298a:	8302                	jr	t1

ffffffc05020298c <port_write>:
ffffffc05020298c:	ffc05337          	lui	t1,0xffc05
ffffffc050202990:	0355                	addi	t1,t1,21 # ffffffffffc05015 <__BSS_END__+0x3faf9e67dd>
ffffffc050202992:	0342                	slli	t1,t1,0x10
ffffffc050202994:	48a5                	li	a7,9
ffffffc050202996:	4801                	li	a6,0
ffffffc050202998:	4781                	li	a5,0
ffffffc05020299a:	4701                	li	a4,0
ffffffc05020299c:	4681                	li	a3,0
ffffffc05020299e:	4601                	li	a2,0
ffffffc0502029a0:	4581                	li	a1,0
ffffffc0502029a2:	8302                	jr	t1

ffffffc0502029a4 <port_read_ch>:
ffffffc0502029a4:	ffc05337          	lui	t1,0xffc05
ffffffc0502029a8:	1141                	addi	sp,sp,-16
ffffffc0502029aa:	0355                	addi	t1,t1,21 # ffffffffffc05015 <__BSS_END__+0x3faf9e67dd>
ffffffc0502029ac:	e406                	sd	ra,8(sp)
ffffffc0502029ae:	0342                	slli	t1,t1,0x10
ffffffc0502029b0:	4889                	li	a7,2
ffffffc0502029b2:	4801                	li	a6,0
ffffffc0502029b4:	4781                	li	a5,0
ffffffc0502029b6:	4701                	li	a4,0
ffffffc0502029b8:	4681                	li	a3,0
ffffffc0502029ba:	4601                	li	a2,0
ffffffc0502029bc:	4581                	li	a1,0
ffffffc0502029be:	4501                	li	a0,0
ffffffc0502029c0:	9302                	jalr	t1
ffffffc0502029c2:	60a2                	ld	ra,8(sp)
ffffffc0502029c4:	2501                	sext.w	a0,a0
ffffffc0502029c6:	0141                	addi	sp,sp,16
ffffffc0502029c8:	8082                	ret

ffffffc0502029ca <sd_read>:
ffffffc0502029ca:	ffc05337          	lui	t1,0xffc05
ffffffc0502029ce:	1141                	addi	sp,sp,-16
ffffffc0502029d0:	1502                	slli	a0,a0,0x20
ffffffc0502029d2:	1582                	slli	a1,a1,0x20
ffffffc0502029d4:	1602                	slli	a2,a2,0x20
ffffffc0502029d6:	0355                	addi	t1,t1,21 # ffffffffffc05015 <__BSS_END__+0x3faf9e67dd>
ffffffc0502029d8:	e406                	sd	ra,8(sp)
ffffffc0502029da:	9101                	srli	a0,a0,0x20
ffffffc0502029dc:	9181                	srli	a1,a1,0x20
ffffffc0502029de:	9201                	srli	a2,a2,0x20
ffffffc0502029e0:	0342                	slli	t1,t1,0x10
ffffffc0502029e2:	48ad                	li	a7,11
ffffffc0502029e4:	4801                	li	a6,0
ffffffc0502029e6:	4781                	li	a5,0
ffffffc0502029e8:	4701                	li	a4,0
ffffffc0502029ea:	4681                	li	a3,0
ffffffc0502029ec:	9302                	jalr	t1
ffffffc0502029ee:	60a2                	ld	ra,8(sp)
ffffffc0502029f0:	2501                	sext.w	a0,a0
ffffffc0502029f2:	0141                	addi	sp,sp,16
ffffffc0502029f4:	8082                	ret

ffffffc0502029f6 <sd_write>:
ffffffc0502029f6:	ffc05337          	lui	t1,0xffc05
ffffffc0502029fa:	1141                	addi	sp,sp,-16
ffffffc0502029fc:	1502                	slli	a0,a0,0x20
ffffffc0502029fe:	1582                	slli	a1,a1,0x20
ffffffc050202a00:	1602                	slli	a2,a2,0x20
ffffffc050202a02:	0355                	addi	t1,t1,21 # ffffffffffc05015 <__BSS_END__+0x3faf9e67dd>
ffffffc050202a04:	e406                	sd	ra,8(sp)
ffffffc050202a06:	9101                	srli	a0,a0,0x20
ffffffc050202a08:	9181                	srli	a1,a1,0x20
ffffffc050202a0a:	9201                	srli	a2,a2,0x20
ffffffc050202a0c:	0342                	slli	t1,t1,0x10
ffffffc050202a0e:	48a9                	li	a7,10
ffffffc050202a10:	4801                	li	a6,0
ffffffc050202a12:	4781                	li	a5,0
ffffffc050202a14:	4701                	li	a4,0
ffffffc050202a16:	4681                	li	a3,0
ffffffc050202a18:	9302                	jalr	t1
ffffffc050202a1a:	60a2                	ld	ra,8(sp)
ffffffc050202a1c:	2501                	sext.w	a0,a0
ffffffc050202a1e:	0141                	addi	sp,sp,16
ffffffc050202a20:	8082                	ret

ffffffc050202a22 <set_timer>:
ffffffc050202a22:	ffc05337          	lui	t1,0xffc05
ffffffc050202a26:	0355                	addi	t1,t1,21 # ffffffffffc05015 <__BSS_END__+0x3faf9e67dd>
ffffffc050202a28:	0342                	slli	t1,t1,0x10
ffffffc050202a2a:	4881                	li	a7,0
ffffffc050202a2c:	4801                	li	a6,0
ffffffc050202a2e:	4781                	li	a5,0
ffffffc050202a30:	4701                	li	a4,0
ffffffc050202a32:	4681                	li	a3,0
ffffffc050202a34:	4601                	li	a2,0
ffffffc050202a36:	4581                	li	a1,0
ffffffc050202a38:	8302                	jr	t1

ffffffc050202a3a <read_fdt>:
ffffffc050202a3a:	ffc05337          	lui	t1,0xffc05
ffffffc050202a3e:	1502                	slli	a0,a0,0x20
ffffffc050202a40:	0355                	addi	t1,t1,21 # ffffffffffc05015 <__BSS_END__+0x3faf9e67dd>
ffffffc050202a42:	9101                	srli	a0,a0,0x20
ffffffc050202a44:	0342                	slli	t1,t1,0x10
ffffffc050202a46:	48b1                	li	a7,12
ffffffc050202a48:	4801                	li	a6,0
ffffffc050202a4a:	4781                	li	a5,0
ffffffc050202a4c:	4701                	li	a4,0
ffffffc050202a4e:	4681                	li	a3,0
ffffffc050202a50:	4601                	li	a2,0
ffffffc050202a52:	4581                	li	a1,0
ffffffc050202a54:	8302                	jr	t1

ffffffc050202a56 <qemu_logging>:
ffffffc050202a56:	ffc05337          	lui	t1,0xffc05
ffffffc050202a5a:	0355                	addi	t1,t1,21 # ffffffffffc05015 <__BSS_END__+0x3faf9e67dd>
ffffffc050202a5c:	0342                	slli	t1,t1,0x10
ffffffc050202a5e:	48b9                	li	a7,14
ffffffc050202a60:	4801                	li	a6,0
ffffffc050202a62:	4781                	li	a5,0
ffffffc050202a64:	4701                	li	a4,0
ffffffc050202a66:	4681                	li	a3,0
ffffffc050202a68:	4601                	li	a2,0
ffffffc050202a6a:	4581                	li	a1,0
ffffffc050202a6c:	8302                	jr	t1

ffffffc050202a6e <send_ipi>:
ffffffc050202a6e:	ffc05337          	lui	t1,0xffc05
ffffffc050202a72:	0355                	addi	t1,t1,21 # ffffffffffc05015 <__BSS_END__+0x3faf9e67dd>
ffffffc050202a74:	0342                	slli	t1,t1,0x10
ffffffc050202a76:	4891                	li	a7,4
ffffffc050202a78:	4801                	li	a6,0
ffffffc050202a7a:	4781                	li	a5,0
ffffffc050202a7c:	4701                	li	a4,0
ffffffc050202a7e:	4681                	li	a3,0
ffffffc050202a80:	4601                	li	a2,0
ffffffc050202a82:	4581                	li	a1,0
ffffffc050202a84:	8302                	jr	t1

ffffffc050202a86 <screen_write_ch>:
ffffffc050202a86:	4729                	li	a4,10
ffffffc050202a88:	05c22783          	lw	a5,92(tp) # 5c <per_cpu_stack_size-0xfa4>
ffffffc050202a8c:	04e50263          	beq	a0,a4,ffffffc050202ad0 <screen_write_ch+0x4a>
ffffffc050202a90:	ff850713          	addi	a4,a0,-8
ffffffc050202a94:	05822683          	lw	a3,88(tp) # 58 <per_cpu_stack_size-0xfa8>
ffffffc050202a98:	0005061b          	sext.w	a2,a0
ffffffc050202a9c:	c721                	beqz	a4,ffffffc050202ae4 <screen_write_ch+0x5e>
ffffffc050202a9e:	f8160613          	addi	a2,a2,-127
ffffffc050202aa2:	c229                	beqz	a2,ffffffc050202ae4 <screen_write_ch+0x5e>
ffffffc050202aa4:	0027971b          	slliw	a4,a5,0x2
ffffffc050202aa8:	9fb9                	addw	a5,a5,a4
ffffffc050202aaa:	0047979b          	slliw	a5,a5,0x4
ffffffc050202aae:	00005717          	auipc	a4,0x5
ffffffc050202ab2:	2ea70713          	addi	a4,a4,746 # ffffffc050207d98 <new_screen>
ffffffc050202ab6:	9fb5                	addw	a5,a5,a3
ffffffc050202ab8:	97ba                	add	a5,a5,a4
ffffffc050202aba:	00a78023          	sb	a0,0(a5)
ffffffc050202abe:	05822783          	lw	a5,88(tp) # 58 <per_cpu_stack_size-0xfa8>
ffffffc050202ac2:	04f00713          	li	a4,79
ffffffc050202ac6:	2785                	addiw	a5,a5,1
ffffffc050202ac8:	04f75363          	bge	a4,a5,ffffffc050202b0e <screen_write_ch+0x88>
ffffffc050202acc:	05c22783          	lw	a5,92(tp) # 5c <per_cpu_stack_size-0xfa4>
ffffffc050202ad0:	04022c23          	sw	zero,88(tp) # 58 <per_cpu_stack_size-0xfa8>
ffffffc050202ad4:	03100713          	li	a4,49
ffffffc050202ad8:	00f74563          	blt	a4,a5,ffffffc050202ae2 <screen_write_ch+0x5c>
ffffffc050202adc:	2785                	addiw	a5,a5,1
ffffffc050202ade:	04f22e23          	sw	a5,92(tp) # 5c <per_cpu_stack_size-0xfa4>
ffffffc050202ae2:	8082                	ret
ffffffc050202ae4:	02d05863          	blez	a3,ffffffc050202b14 <screen_write_ch+0x8e>
ffffffc050202ae8:	36fd                	addiw	a3,a3,-1
ffffffc050202aea:	04d22c23          	sw	a3,88(tp) # 58 <per_cpu_stack_size-0xfa8>
ffffffc050202aee:	0027971b          	slliw	a4,a5,0x2
ffffffc050202af2:	9fb9                	addw	a5,a5,a4
ffffffc050202af4:	0047979b          	slliw	a5,a5,0x4
ffffffc050202af8:	00005717          	auipc	a4,0x5
ffffffc050202afc:	2a070713          	addi	a4,a4,672 # ffffffc050207d98 <new_screen>
ffffffc050202b00:	9fb5                	addw	a5,a5,a3
ffffffc050202b02:	97ba                	add	a5,a5,a4
ffffffc050202b04:	02000713          	li	a4,32
ffffffc050202b08:	00e78023          	sb	a4,0(a5)
ffffffc050202b0c:	8082                	ret
ffffffc050202b0e:	04f22c23          	sw	a5,88(tp) # 58 <per_cpu_stack_size-0xfa8>
ffffffc050202b12:	8082                	ret
ffffffc050202b14:	fcf05de3          	blez	a5,ffffffc050202aee <screen_write_ch+0x68>
ffffffc050202b18:	37fd                	addiw	a5,a5,-1
ffffffc050202b1a:	04f00693          	li	a3,79
ffffffc050202b1e:	04f22e23          	sw	a5,92(tp) # 5c <per_cpu_stack_size-0xfa4>
ffffffc050202b22:	04d22c23          	sw	a3,88(tp) # 58 <per_cpu_stack_size-0xfa8>
ffffffc050202b26:	b7e1                	j	ffffffc050202aee <screen_write_ch+0x68>

ffffffc050202b28 <screen_move_cursor>:
ffffffc050202b28:	0005069b          	sext.w	a3,a0
ffffffc050202b2c:	00055363          	bgez	a0,ffffffc050202b32 <screen_move_cursor+0xa>
ffffffc050202b30:	4681                	li	a3,0
ffffffc050202b32:	04f00793          	li	a5,79
ffffffc050202b36:	00d7d363          	bge	a5,a3,ffffffc050202b3c <screen_move_cursor+0x14>
ffffffc050202b3a:	86be                	mv	a3,a5
ffffffc050202b3c:	862e                	mv	a2,a1
ffffffc050202b3e:	0005d363          	bgez	a1,ffffffc050202b44 <screen_move_cursor+0x1c>
ffffffc050202b42:	4601                	li	a2,0
ffffffc050202b44:	0006079b          	sext.w	a5,a2
ffffffc050202b48:	03100713          	li	a4,49
ffffffc050202b4c:	00f75363          	bge	a4,a5,ffffffc050202b52 <screen_move_cursor+0x2a>
ffffffc050202b50:	863a                	mv	a2,a4
ffffffc050202b52:	04d22c23          	sw	a3,88(tp) # 58 <per_cpu_stack_size-0xfa8>
ffffffc050202b56:	04c22e23          	sw	a2,92(tp) # 5c <per_cpu_stack_size-0xfa4>
ffffffc050202b5a:	2685                	addiw	a3,a3,1
ffffffc050202b5c:	2605                	addiw	a2,a2,1
ffffffc050202b5e:	45ed                	li	a1,27
ffffffc050202b60:	00002517          	auipc	a0,0x2
ffffffc050202b64:	5e050513          	addi	a0,a0,1504 # ffffffc050205140 <strcat+0x1e0>
ffffffc050202b68:	23c0206f          	j	ffffffc050204da4 <printv>

ffffffc050202b6c <screen_write>:
ffffffc050202b6c:	1101                	addi	sp,sp,-32
ffffffc050202b6e:	e822                	sd	s0,16(sp)
ffffffc050202b70:	ec06                	sd	ra,24(sp)
ffffffc050202b72:	842a                	mv	s0,a0
ffffffc050202b74:	302020ef          	jal	ffffffc050204e76 <strlen>
ffffffc050202b78:	00a05d63          	blez	a0,ffffffc050202b92 <screen_write+0x26>
ffffffc050202b7c:	e426                	sd	s1,8(sp)
ffffffc050202b7e:	00a404b3          	add	s1,s0,a0
ffffffc050202b82:	00044503          	lbu	a0,0(s0)
ffffffc050202b86:	0405                	addi	s0,s0,1
ffffffc050202b88:	effff0ef          	jal	ffffffc050202a86 <screen_write_ch>
ffffffc050202b8c:	fe941be3          	bne	s0,s1,ffffffc050202b82 <screen_write+0x16>
ffffffc050202b90:	64a2                	ld	s1,8(sp)
ffffffc050202b92:	60e2                	ld	ra,24(sp)
ffffffc050202b94:	6442                	ld	s0,16(sp)
ffffffc050202b96:	6105                	addi	sp,sp,32
ffffffc050202b98:	8082                	ret

ffffffc050202b9a <screen_reflush>:
ffffffc050202b9a:	715d                	addi	sp,sp,-80
ffffffc050202b9c:	ec56                	sd	s5,24(sp)
ffffffc050202b9e:	fe029ab7          	lui	s5,0xfe029
ffffffc050202ba2:	e85a                	sd	s6,16(sp)
ffffffc050202ba4:	0ab6                	slli	s5,s5,0xd
ffffffc050202ba6:	00004b17          	auipc	s6,0x4
ffffffc050202baa:	252b0b13          	addi	s6,s6,594 # ffffffc050206df8 <old_screen>
ffffffc050202bae:	f84a                	sd	s2,48(sp)
ffffffc050202bb0:	f44e                	sd	s3,40(sp)
ffffffc050202bb2:	e45e                	sd	s7,8(sp)
ffffffc050202bb4:	e062                	sd	s8,0(sp)
ffffffc050202bb6:	e486                	sd	ra,72(sp)
ffffffc050202bb8:	e0a2                	sd	s0,64(sp)
ffffffc050202bba:	fc26                	sd	s1,56(sp)
ffffffc050202bbc:	f052                	sd	s4,32(sp)
ffffffc050202bbe:	f08a8a93          	addi	s5,s5,-248 # fffffffffe028f08 <__BSS_END__+0x3fade0a6d0>
ffffffc050202bc2:	41600b3b          	negw	s6,s6
ffffffc050202bc6:	00004997          	auipc	s3,0x4
ffffffc050202bca:	28298993          	addi	s3,s3,642 # ffffffc050206e48 <old_screen+0x50>
ffffffc050202bce:	00005b97          	auipc	s7,0x5
ffffffc050202bd2:	1cab8b93          	addi	s7,s7,458 # ffffffc050207d98 <new_screen>
ffffffc050202bd6:	4901                	li	s2,0
ffffffc050202bd8:	03200c13          	li	s8,50
ffffffc050202bdc:	2905                	addiw	s2,s2,1
ffffffc050202bde:	fb098413          	addi	s0,s3,-80
ffffffc050202be2:	84de                	mv	s1,s7
ffffffc050202be4:	001b0a1b          	addiw	s4,s6,1
ffffffc050202be8:	0004c703          	lbu	a4,0(s1)
ffffffc050202bec:	00044783          	lbu	a5,0(s0)
ffffffc050202bf0:	008a06bb          	addw	a3,s4,s0
ffffffc050202bf4:	864a                	mv	a2,s2
ffffffc050202bf6:	45ed                	li	a1,27
ffffffc050202bf8:	00002517          	auipc	a0,0x2
ffffffc050202bfc:	54850513          	addi	a0,a0,1352 # ffffffc050205140 <strcat+0x1e0>
ffffffc050202c00:	02f70163          	beq	a4,a5,ffffffc050202c22 <screen_reflush+0x88>
ffffffc050202c04:	1a0020ef          	jal	ffffffc050204da4 <printv>
ffffffc050202c08:	000ab783          	ld	a5,0(s5)
ffffffc050202c0c:	0004c503          	lbu	a0,0(s1)
ffffffc050202c10:	4701                	li	a4,0
ffffffc050202c12:	4681                	li	a3,0
ffffffc050202c14:	4601                	li	a2,0
ffffffc050202c16:	4581                	li	a1,0
ffffffc050202c18:	9782                	jalr	a5
ffffffc050202c1a:	0004c783          	lbu	a5,0(s1)
ffffffc050202c1e:	00f40023          	sb	a5,0(s0)
ffffffc050202c22:	0405                	addi	s0,s0,1
ffffffc050202c24:	0485                	addi	s1,s1,1
ffffffc050202c26:	fd3411e3          	bne	s0,s3,ffffffc050202be8 <screen_reflush+0x4e>
ffffffc050202c2a:	05040993          	addi	s3,s0,80
ffffffc050202c2e:	050b8b93          	addi	s7,s7,80
ffffffc050202c32:	fb0b0b1b          	addiw	s6,s6,-80
ffffffc050202c36:	fb8913e3          	bne	s2,s8,ffffffc050202bdc <screen_reflush+0x42>
ffffffc050202c3a:	05822683          	lw	a3,88(tp) # 58 <per_cpu_stack_size-0xfa8>
ffffffc050202c3e:	05c22603          	lw	a2,92(tp) # 5c <per_cpu_stack_size-0xfa4>
ffffffc050202c42:	6406                	ld	s0,64(sp)
ffffffc050202c44:	60a6                	ld	ra,72(sp)
ffffffc050202c46:	74e2                	ld	s1,56(sp)
ffffffc050202c48:	7942                	ld	s2,48(sp)
ffffffc050202c4a:	79a2                	ld	s3,40(sp)
ffffffc050202c4c:	7a02                	ld	s4,32(sp)
ffffffc050202c4e:	6ae2                	ld	s5,24(sp)
ffffffc050202c50:	6b42                	ld	s6,16(sp)
ffffffc050202c52:	6ba2                	ld	s7,8(sp)
ffffffc050202c54:	6c02                	ld	s8,0(sp)
ffffffc050202c56:	45ed                	li	a1,27
ffffffc050202c58:	2685                	addiw	a3,a3,1
ffffffc050202c5a:	2605                	addiw	a2,a2,1
ffffffc050202c5c:	00002517          	auipc	a0,0x2
ffffffc050202c60:	4e450513          	addi	a0,a0,1252 # ffffffc050205140 <strcat+0x1e0>
ffffffc050202c64:	6161                	addi	sp,sp,80
ffffffc050202c66:	13e0206f          	j	ffffffc050204da4 <printv>

ffffffc050202c6a <screen_clear>:
ffffffc050202c6a:	1141                	addi	sp,sp,-16
ffffffc050202c6c:	45ed                	li	a1,27
ffffffc050202c6e:	00002517          	auipc	a0,0x2
ffffffc050202c72:	4e250513          	addi	a0,a0,1250 # ffffffc050205150 <strcat+0x1f0>
ffffffc050202c76:	e406                	sd	ra,8(sp)
ffffffc050202c78:	12c020ef          	jal	ffffffc050204da4 <printv>
ffffffc050202c7c:	00004697          	auipc	a3,0x4
ffffffc050202c80:	ab46b683          	ld	a3,-1356(a3) # ffffffc050206730 <__SDATA_BEGIN__>
ffffffc050202c84:	00005517          	auipc	a0,0x5
ffffffc050202c88:	11450513          	addi	a0,a0,276 # ffffffc050207d98 <new_screen>
ffffffc050202c8c:	00004597          	auipc	a1,0x4
ffffffc050202c90:	16c58593          	addi	a1,a1,364 # ffffffc050206df8 <old_screen>
ffffffc050202c94:	00005617          	auipc	a2,0x5
ffffffc050202c98:	15460613          	addi	a2,a2,340 # ffffffc050207de8 <new_screen+0x50>
ffffffc050202c9c:	00006817          	auipc	a6,0x6
ffffffc050202ca0:	0ec80813          	addi	a6,a6,236 # ffffffc050208d88 <irq_table+0x50>
ffffffc050202ca4:	872e                	mv	a4,a1
ffffffc050202ca6:	87aa                	mv	a5,a0
ffffffc050202ca8:	e394                	sd	a3,0(a5)
ffffffc050202caa:	e314                	sd	a3,0(a4)
ffffffc050202cac:	07a1                	addi	a5,a5,8
ffffffc050202cae:	0721                	addi	a4,a4,8
ffffffc050202cb0:	fec79ce3          	bne	a5,a2,ffffffc050202ca8 <screen_clear+0x3e>
ffffffc050202cb4:	05078613          	addi	a2,a5,80
ffffffc050202cb8:	05050513          	addi	a0,a0,80
ffffffc050202cbc:	05058593          	addi	a1,a1,80
ffffffc050202cc0:	ff0612e3          	bne	a2,a6,ffffffc050202ca4 <screen_clear+0x3a>
ffffffc050202cc4:	60a2                	ld	ra,8(sp)
ffffffc050202cc6:	04023c23          	sd	zero,88(tp) # 58 <per_cpu_stack_size-0xfa8>
ffffffc050202cca:	0141                	addi	sp,sp,16
ffffffc050202ccc:	b5f9                	j	ffffffc050202b9a <screen_reflush>

ffffffc050202cce <init_screen>:
ffffffc050202cce:	1141                	addi	sp,sp,-16
ffffffc050202cd0:	45ed                	li	a1,27
ffffffc050202cd2:	00002517          	auipc	a0,0x2
ffffffc050202cd6:	48650513          	addi	a0,a0,1158 # ffffffc050205158 <strcat+0x1f8>
ffffffc050202cda:	e406                	sd	ra,8(sp)
ffffffc050202cdc:	0c8020ef          	jal	ffffffc050204da4 <printv>
ffffffc050202ce0:	45ed                	li	a1,27
ffffffc050202ce2:	00002517          	auipc	a0,0x2
ffffffc050202ce6:	46e50513          	addi	a0,a0,1134 # ffffffc050205150 <strcat+0x1f0>
ffffffc050202cea:	0ba020ef          	jal	ffffffc050204da4 <printv>
ffffffc050202cee:	60a2                	ld	ra,8(sp)
ffffffc050202cf0:	0141                	addi	sp,sp,16
ffffffc050202cf2:	bfa5                	j	ffffffc050202c6a <screen_clear>

ffffffc050202cf4 <handle_irq_timer>:
ffffffc050202cf4:	1141                	addi	sp,sp,-16
ffffffc050202cf6:	e406                	sd	ra,8(sp)
ffffffc050202cf8:	22d010ef          	jal	ffffffc050204724 <get_ticks>
ffffffc050202cfc:	fe0297b7          	lui	a5,0xfe029
ffffffc050202d00:	07b6                	slli	a5,a5,0xd
ffffffc050202d02:	f307b803          	ld	a6,-208(a5) # fffffffffe028f30 <__BSS_END__+0x3fade0a6f8>
ffffffc050202d06:	00025737          	lui	a4,0x25
ffffffc050202d0a:	9f070713          	addi	a4,a4,-1552 # 249f0 <per_cpu_stack_size+0x239f0>
ffffffc050202d0e:	953a                	add	a0,a0,a4
ffffffc050202d10:	4681                	li	a3,0
ffffffc050202d12:	4701                	li	a4,0
ffffffc050202d14:	4601                	li	a2,0
ffffffc050202d16:	4581                	li	a1,0
ffffffc050202d18:	9802                	jalr	a6
ffffffc050202d1a:	04022583          	lw	a1,64(tp) # 40 <per_cpu_stack_size-0xfc0>
ffffffc050202d1e:	00002517          	auipc	a0,0x2
ffffffc050202d22:	44250513          	addi	a0,a0,1090 # ffffffc050205160 <strcat+0x200>
ffffffc050202d26:	0aa020ef          	jal	ffffffc050204dd0 <printl>
ffffffc050202d2a:	60a2                	ld	ra,8(sp)
ffffffc050202d2c:	0141                	addi	sp,sp,16
ffffffc050202d2e:	4350006f          	j	ffffffc050203962 <do_scheduler>

ffffffc050202d32 <handle_other>:
ffffffc050202d32:	710d                	addi	sp,sp,-352
ffffffc050202d34:	ee5e                	sd	s7,280(sp)
ffffffc050202d36:	ea62                	sd	s8,272(sp)
ffffffc050202d38:	e666                	sd	s9,264(sp)
ffffffc050202d3a:	ee86                	sd	ra,344(sp)
ffffffc050202d3c:	eaa2                	sd	s0,336(sp)
ffffffc050202d3e:	e6a6                	sd	s1,328(sp)
ffffffc050202d40:	e2ca                	sd	s2,320(sp)
ffffffc050202d42:	fe4e                	sd	s3,312(sp)
ffffffc050202d44:	fa52                	sd	s4,304(sp)
ffffffc050202d46:	f656                	sd	s5,296(sp)
ffffffc050202d48:	f25a                	sd	s6,288(sp)
ffffffc050202d4a:	8baa                	mv	s7,a0
ffffffc050202d4c:	8c2e                	mv	s8,a1
ffffffc050202d4e:	8cb2                	mv	s9,a2
ffffffc050202d50:	00002797          	auipc	a5,0x2
ffffffc050202d54:	78078793          	addi	a5,a5,1920 # ffffffc0502054d0 <strcat+0x570>
ffffffc050202d58:	870a                	mv	a4,sp
ffffffc050202d5a:	00003697          	auipc	a3,0x3
ffffffc050202d5e:	87668693          	addi	a3,a3,-1930 # ffffffc0502055d0 <__FUNCTION__.0>
ffffffc050202d62:	0007b803          	ld	a6,0(a5)
ffffffc050202d66:	6788                	ld	a0,8(a5)
ffffffc050202d68:	6b8c                	ld	a1,16(a5)
ffffffc050202d6a:	6f90                	ld	a2,24(a5)
ffffffc050202d6c:	01073023          	sd	a6,0(a4)
ffffffc050202d70:	e708                	sd	a0,8(a4)
ffffffc050202d72:	eb0c                	sd	a1,16(a4)
ffffffc050202d74:	ef10                	sd	a2,24(a4)
ffffffc050202d76:	02078793          	addi	a5,a5,32
ffffffc050202d7a:	02070713          	addi	a4,a4,32
ffffffc050202d7e:	fed792e3          	bne	a5,a3,ffffffc050202d62 <handle_other+0x30>
ffffffc050202d82:	8a8a                	mv	s5,sp
ffffffc050202d84:	8a5e                	mv	s4,s7
ffffffc050202d86:	598d                	li	s3,-29
ffffffc050202d88:	4b11                	li	s6,4
ffffffc050202d8a:	8952                	mv	s2,s4
ffffffc050202d8c:	84d6                	mv	s1,s5
ffffffc050202d8e:	440d                	li	s0,3
ffffffc050202d90:	00002517          	auipc	a0,0x2
ffffffc050202d94:	3d850513          	addi	a0,a0,984 # ffffffc050205168 <strcat+0x208>
ffffffc050202d98:	09340363          	beq	s0,s3,ffffffc050202e1e <handle_other+0xec>
ffffffc050202d9c:	00093603          	ld	a2,0(s2)
ffffffc050202da0:	608c                	ld	a1,0(s1)
ffffffc050202da2:	347d                	addiw	s0,s0,-1
ffffffc050202da4:	04a1                	addi	s1,s1,8
ffffffc050202da6:	7d3010ef          	jal	ffffffc050204d78 <printk>
ffffffc050202daa:	0921                	addi	s2,s2,8
ffffffc050202dac:	f075                	bnez	s0,ffffffc050202d90 <handle_other+0x5e>
ffffffc050202dae:	00002517          	auipc	a0,0x2
ffffffc050202db2:	3ca50513          	addi	a0,a0,970 # ffffffc050205178 <strcat+0x218>
ffffffc050202db6:	298d                	addiw	s3,s3,3
ffffffc050202db8:	7c1010ef          	jal	ffffffc050204d78 <printk>
ffffffc050202dbc:	0ae1                	addi	s5,s5,24
ffffffc050202dbe:	0a61                	addi	s4,s4,24
ffffffc050202dc0:	fd6995e3          	bne	s3,s6,ffffffc050202d8a <handle_other+0x58>
ffffffc050202dc4:	118bb683          	ld	a3,280(s7)
ffffffc050202dc8:	110bb603          	ld	a2,272(s7)
ffffffc050202dcc:	100bb583          	ld	a1,256(s7)
ffffffc050202dd0:	00002517          	auipc	a0,0x2
ffffffc050202dd4:	3b050513          	addi	a0,a0,944 # ffffffc050205180 <strcat+0x220>
ffffffc050202dd8:	7a1010ef          	jal	ffffffc050204d78 <printk>
ffffffc050202ddc:	108bb583          	ld	a1,264(s7)
ffffffc050202de0:	00002517          	auipc	a0,0x2
ffffffc050202de4:	3d050513          	addi	a0,a0,976 # ffffffc0502051b0 <strcat+0x250>
ffffffc050202de8:	791010ef          	jal	ffffffc050204d78 <printk>
ffffffc050202dec:	8666                	mv	a2,s9
ffffffc050202dee:	85e2                	mv	a1,s8
ffffffc050202df0:	00002517          	auipc	a0,0x2
ffffffc050202df4:	3d050513          	addi	a0,a0,976 # ffffffc0502051c0 <strcat+0x260>
ffffffc050202df8:	781010ef          	jal	ffffffc050204d78 <printk>
ffffffc050202dfc:	05200693          	li	a3,82
ffffffc050202e00:	00002617          	auipc	a2,0x2
ffffffc050202e04:	3e060613          	addi	a2,a2,992 # ffffffc0502051e0 <strcat+0x280>
ffffffc050202e08:	00002597          	auipc	a1,0x2
ffffffc050202e0c:	7c858593          	addi	a1,a1,1992 # ffffffc0502055d0 <__FUNCTION__.0>
ffffffc050202e10:	00002517          	auipc	a0,0x2
ffffffc050202e14:	3e850513          	addi	a0,a0,1000 # ffffffc0502051f8 <strcat+0x298>
ffffffc050202e18:	761010ef          	jal	ffffffc050204d78 <printk>
ffffffc050202e1c:	a001                	j	ffffffc050202e1c <handle_other+0xea>
ffffffc050202e1e:	00002517          	auipc	a0,0x2
ffffffc050202e22:	35a50513          	addi	a0,a0,858 # ffffffc050205178 <strcat+0x218>
ffffffc050202e26:	753010ef          	jal	ffffffc050204d78 <printk>
ffffffc050202e2a:	bf69                	j	ffffffc050202dc4 <handle_other+0x92>

ffffffc050202e2c <interrupt_helper>:
ffffffc050202e2c:	00361793          	slli	a5,a2,0x3
ffffffc050202e30:	00006717          	auipc	a4,0x6
ffffffc050202e34:	f0870713          	addi	a4,a4,-248 # ffffffc050208d38 <irq_table>
ffffffc050202e38:	97ba                	add	a5,a5,a4
ffffffc050202e3a:	00064463          	bltz	a2,ffffffc050202e42 <interrupt_helper+0x16>
ffffffc050202e3e:	73bc                	ld	a5,96(a5)
ffffffc050202e40:	8782                	jr	a5
ffffffc050202e42:	639c                	ld	a5,0(a5)
ffffffc050202e44:	8782                	jr	a5

ffffffc050202e46 <init_exception>:
ffffffc050202e46:	00006797          	auipc	a5,0x6
ffffffc050202e4a:	f5278793          	addi	a5,a5,-174 # ffffffc050208d98 <exc_table>
ffffffc050202e4e:	00006697          	auipc	a3,0x6
ffffffc050202e52:	fca68693          	addi	a3,a3,-54 # ffffffc050208e18 <read_buffer>
ffffffc050202e56:	00000717          	auipc	a4,0x0
ffffffc050202e5a:	edc70713          	addi	a4,a4,-292 # ffffffc050202d32 <handle_other>
ffffffc050202e5e:	e398                	sd	a4,0(a5)
ffffffc050202e60:	07a1                	addi	a5,a5,8
ffffffc050202e62:	fed79ee3          	bne	a5,a3,ffffffc050202e5e <init_exception+0x18>
ffffffc050202e66:	00002697          	auipc	a3,0x2
ffffffc050202e6a:	98868693          	addi	a3,a3,-1656 # ffffffc0502047ee <handle_syscall>
ffffffc050202e6e:	00000797          	auipc	a5,0x0
ffffffc050202e72:	e8678793          	addi	a5,a5,-378 # ffffffc050202cf4 <handle_irq_timer>
ffffffc050202e76:	00006617          	auipc	a2,0x6
ffffffc050202e7a:	ece63123          	sd	a4,-318(a2) # ffffffc050208d38 <irq_table>
ffffffc050202e7e:	00006617          	auipc	a2,0x6
ffffffc050202e82:	ece63123          	sd	a4,-318(a2) # ffffffc050208d40 <irq_table+0x8>
ffffffc050202e86:	00006617          	auipc	a2,0x6
ffffffc050202e8a:	ece63523          	sd	a4,-310(a2) # ffffffc050208d50 <irq_table+0x18>
ffffffc050202e8e:	00006617          	auipc	a2,0x6
ffffffc050202e92:	ece63523          	sd	a4,-310(a2) # ffffffc050208d58 <irq_table+0x20>
ffffffc050202e96:	00006617          	auipc	a2,0x6
ffffffc050202e9a:	ece63d23          	sd	a4,-294(a2) # ffffffc050208d70 <irq_table+0x38>
ffffffc050202e9e:	00006617          	auipc	a2,0x6
ffffffc050202ea2:	ece63d23          	sd	a4,-294(a2) # ffffffc050208d78 <irq_table+0x40>
ffffffc050202ea6:	00006617          	auipc	a2,0x6
ffffffc050202eaa:	ece63d23          	sd	a4,-294(a2) # ffffffc050208d80 <irq_table+0x48>
ffffffc050202eae:	00006617          	auipc	a2,0x6
ffffffc050202eb2:	eee63123          	sd	a4,-286(a2) # ffffffc050208d90 <irq_table+0x58>
ffffffc050202eb6:	00006717          	auipc	a4,0x6
ffffffc050202eba:	f2d73123          	sd	a3,-222(a4) # ffffffc050208dd8 <exc_table+0x40>
ffffffc050202ebe:	00006717          	auipc	a4,0x6
ffffffc050202ec2:	eaf73123          	sd	a5,-350(a4) # ffffffc050208d60 <irq_table+0x28>
ffffffc050202ec6:	8082                	ret

ffffffc050202ec8 <load_task_img>:
ffffffc050202ec8:	7179                	addi	sp,sp,-48
ffffffc050202eca:	e052                	sd	s4,0(sp)
ffffffc050202ecc:	00004a17          	auipc	s4,0x4
ffffffc050202ed0:	8d4a0a13          	addi	s4,s4,-1836 # ffffffc0502067a0 <tasks>
ffffffc050202ed4:	f022                	sd	s0,32(sp)
ffffffc050202ed6:	ec26                	sd	s1,24(sp)
ffffffc050202ed8:	e84a                	sd	s2,16(sp)
ffffffc050202eda:	e44e                	sd	s3,8(sp)
ffffffc050202edc:	f406                	sd	ra,40(sp)
ffffffc050202ede:	89aa                	mv	s3,a0
ffffffc050202ee0:	8452                	mv	s0,s4
ffffffc050202ee2:	4481                	li	s1,0
ffffffc050202ee4:	02000913          	li	s2,32
ffffffc050202ee8:	a031                	j	ffffffc050202ef4 <load_task_img+0x2c>
ffffffc050202eea:	2485                	addiw	s1,s1,1
ffffffc050202eec:	03040413          	addi	s0,s0,48
ffffffc050202ef0:	0d248063          	beq	s1,s2,ffffffc050202fb0 <load_task_img+0xe8>
ffffffc050202ef4:	00044783          	lbu	a5,0(s0)
ffffffc050202ef8:	dbed                	beqz	a5,ffffffc050202eea <load_task_img+0x22>
ffffffc050202efa:	85ce                	mv	a1,s3
ffffffc050202efc:	8522                	mv	a0,s0
ffffffc050202efe:	797010ef          	jal	ffffffc050204e94 <strcmp>
ffffffc050202f02:	f565                	bnez	a0,ffffffc050202eea <load_task_img+0x22>
ffffffc050202f04:	00149793          	slli	a5,s1,0x1
ffffffc050202f08:	97a6                	add	a5,a5,s1
ffffffc050202f0a:	0792                	slli	a5,a5,0x4
ffffffc050202f0c:	00fa0433          	add	s0,s4,a5
ffffffc050202f10:	02042903          	lw	s2,32(s0)
ffffffc050202f14:	02442983          	lw	s3,36(s0)
ffffffc050202f18:	67a1                	lui	a5,0x8
ffffffc050202f1a:	0099561b          	srliw	a2,s2,0x9
ffffffc050202f1e:	013905bb          	addw	a1,s2,s3
ffffffc050202f22:	35fd                	addiw	a1,a1,-1
ffffffc050202f24:	0095d59b          	srliw	a1,a1,0x9
ffffffc050202f28:	9d91                	subw	a1,a1,a2
ffffffc050202f2a:	2585                	addiw	a1,a1,1
ffffffc050202f2c:	0095971b          	slliw	a4,a1,0x9
ffffffc050202f30:	04e7e863          	bltu	a5,a4,ffffffc050202f80 <load_task_img+0xb8>
ffffffc050202f34:	fe0297b7          	lui	a5,0xfe029
ffffffc050202f38:	07b6                	slli	a5,a5,0xd
ffffffc050202f3a:	f1878793          	addi	a5,a5,-232 # fffffffffe028f18 <__BSS_END__+0x3fade0a6e0>
ffffffc050202f3e:	00006a17          	auipc	s4,0x6
ffffffc050202f42:	edaa0a13          	addi	s4,s4,-294 # ffffffc050208e18 <read_buffer>
ffffffc050202f46:	639c                	ld	a5,0(a5)
ffffffc050202f48:	020a1513          	slli	a0,s4,0x20
ffffffc050202f4c:	1582                	slli	a1,a1,0x20
ffffffc050202f4e:	9181                	srli	a1,a1,0x20
ffffffc050202f50:	4701                	li	a4,0
ffffffc050202f52:	4681                	li	a3,0
ffffffc050202f54:	9101                	srli	a0,a0,0x20
ffffffc050202f56:	9782                	jalr	a5
ffffffc050202f58:	6515                	lui	a0,0x5
ffffffc050202f5a:	2005051b          	addiw	a0,a0,512 # 5200 <per_cpu_stack_size+0x4200>
ffffffc050202f5e:	1ff97593          	andi	a1,s2,511
ffffffc050202f62:	9d25                	addw	a0,a0,s1
ffffffc050202f64:	95d2                	add	a1,a1,s4
ffffffc050202f66:	864e                	mv	a2,s3
ffffffc050202f68:	0542                	slli	a0,a0,0x10
ffffffc050202f6a:	6cb010ef          	jal	ffffffc050204e34 <memcpy>
ffffffc050202f6e:	7408                	ld	a0,40(s0)
ffffffc050202f70:	70a2                	ld	ra,40(sp)
ffffffc050202f72:	7402                	ld	s0,32(sp)
ffffffc050202f74:	64e2                	ld	s1,24(sp)
ffffffc050202f76:	6942                	ld	s2,16(sp)
ffffffc050202f78:	69a2                	ld	s3,8(sp)
ffffffc050202f7a:	6a02                	ld	s4,0(sp)
ffffffc050202f7c:	6145                	addi	sp,sp,48
ffffffc050202f7e:	8082                	ret
ffffffc050202f80:	fe0297b7          	lui	a5,0xfe029
ffffffc050202f84:	07b6                	slli	a5,a5,0xd
ffffffc050202f86:	f0078793          	addi	a5,a5,-256 # fffffffffe028f00 <__BSS_END__+0x3fade0a6c8>
ffffffc050202f8a:	639c                	ld	a5,0(a5)
ffffffc050202f8c:	4701                	li	a4,0
ffffffc050202f8e:	4681                	li	a3,0
ffffffc050202f90:	4601                	li	a2,0
ffffffc050202f92:	4581                	li	a1,0
ffffffc050202f94:	00002517          	auipc	a0,0x2
ffffffc050202f98:	38c50513          	addi	a0,a0,908 # ffffffc050205320 <strcat+0x3c0>
ffffffc050202f9c:	9782                	jalr	a5
ffffffc050202f9e:	4501                	li	a0,0
ffffffc050202fa0:	70a2                	ld	ra,40(sp)
ffffffc050202fa2:	7402                	ld	s0,32(sp)
ffffffc050202fa4:	64e2                	ld	s1,24(sp)
ffffffc050202fa6:	6942                	ld	s2,16(sp)
ffffffc050202fa8:	69a2                	ld	s3,8(sp)
ffffffc050202faa:	6a02                	ld	s4,0(sp)
ffffffc050202fac:	6145                	addi	sp,sp,48
ffffffc050202fae:	8082                	ret
ffffffc050202fb0:	fe029437          	lui	s0,0xfe029
ffffffc050202fb4:	0436                	slli	s0,s0,0xd
ffffffc050202fb6:	f0043783          	ld	a5,-256(s0) # fffffffffe028f00 <__BSS_END__+0x3fade0a6c8>
ffffffc050202fba:	4701                	li	a4,0
ffffffc050202fbc:	4681                	li	a3,0
ffffffc050202fbe:	4601                	li	a2,0
ffffffc050202fc0:	4581                	li	a1,0
ffffffc050202fc2:	00002517          	auipc	a0,0x2
ffffffc050202fc6:	38e50513          	addi	a0,a0,910 # ffffffc050205350 <strcat+0x3f0>
ffffffc050202fca:	9782                	jalr	a5
ffffffc050202fcc:	f0043783          	ld	a5,-256(s0)
ffffffc050202fd0:	4701                	li	a4,0
ffffffc050202fd2:	4681                	li	a3,0
ffffffc050202fd4:	4601                	li	a2,0
ffffffc050202fd6:	4581                	li	a1,0
ffffffc050202fd8:	854e                	mv	a0,s3
ffffffc050202fda:	9782                	jalr	a5
ffffffc050202fdc:	f0043783          	ld	a5,-256(s0)
ffffffc050202fe0:	4701                	li	a4,0
ffffffc050202fe2:	4681                	li	a3,0
ffffffc050202fe4:	4601                	li	a2,0
ffffffc050202fe6:	4581                	li	a1,0
ffffffc050202fe8:	00002517          	auipc	a0,0x2
ffffffc050202fec:	38050513          	addi	a0,a0,896 # ffffffc050205368 <strcat+0x408>
ffffffc050202ff0:	9782                	jalr	a5
ffffffc050202ff2:	4501                	li	a0,0
ffffffc050202ff4:	b775                	j	ffffffc050202fa0 <load_task_img+0xd8>

ffffffc050202ff6 <init_locks>:
ffffffc050202ff6:	00003797          	auipc	a5,0x3
ffffffc050202ffa:	7807a123          	sw	zero,1922(a5) # ffffffc050206778 <mlock_alloc_lock>
ffffffc050202ffe:	0000e797          	auipc	a5,0xe
ffffffc050203002:	e2278793          	addi	a5,a5,-478 # ffffffc050210e20 <mlocks+0x8>
ffffffc050203006:	0000e617          	auipc	a2,0xe
ffffffc05020300a:	01260613          	addi	a2,a2,18 # ffffffc050211018 <mlock_status>
ffffffc05020300e:	4701                	li	a4,0
ffffffc050203010:	0000e817          	auipc	a6,0xe
ffffffc050203014:	e0880813          	addi	a6,a6,-504 # ffffffc050210e18 <mlocks>
ffffffc050203018:	557d                	li	a0,-1
ffffffc05020301a:	45c1                	li	a1,16
ffffffc05020301c:	00571693          	slli	a3,a4,0x5
ffffffc050203020:	96c2                	add	a3,a3,a6
ffffffc050203022:	0006a023          	sw	zero,0(a3)
ffffffc050203026:	00062023          	sw	zero,0(a2)
ffffffc05020302a:	e39c                	sd	a5,0(a5)
ffffffc05020302c:	e79c                	sd	a5,8(a5)
ffffffc05020302e:	cb88                	sw	a0,16(a5)
ffffffc050203030:	2705                	addiw	a4,a4,1
ffffffc050203032:	0611                	addi	a2,a2,4
ffffffc050203034:	02078793          	addi	a5,a5,32
ffffffc050203038:	feb712e3          	bne	a4,a1,ffffffc05020301c <init_locks+0x26>
ffffffc05020303c:	8082                	ret

ffffffc05020303e <spin_lock_init>:
ffffffc05020303e:	00052023          	sw	zero,0(a0)
ffffffc050203042:	8082                	ret

ffffffc050203044 <spin_lock_try_acquire>:
ffffffc050203044:	4785                	li	a5,1
ffffffc050203046:	0ef527af          	amoswap.w.aqrl	a5,a5,(a0)
ffffffc05020304a:	2781                	sext.w	a5,a5
ffffffc05020304c:	0017b513          	seqz	a0,a5
ffffffc050203050:	8082                	ret

ffffffc050203052 <spin_lock_acquire>:
ffffffc050203052:	4705                	li	a4,1
ffffffc050203054:	0ee527af          	amoswap.w.aqrl	a5,a4,(a0)
ffffffc050203058:	2781                	sext.w	a5,a5
ffffffc05020305a:	ffed                	bnez	a5,ffffffc050203054 <spin_lock_acquire+0x2>
ffffffc05020305c:	8082                	ret

ffffffc05020305e <spin_lock_release>:
ffffffc05020305e:	00052023          	sw	zero,0(a0)
ffffffc050203062:	8082                	ret

ffffffc050203064 <do_mutex_lock_init>:
ffffffc050203064:	00003717          	auipc	a4,0x3
ffffffc050203068:	71470713          	addi	a4,a4,1812 # ffffffc050206778 <mlock_alloc_lock>
ffffffc05020306c:	4685                	li	a3,1
ffffffc05020306e:	0ed727af          	amoswap.w.aqrl	a5,a3,(a4)
ffffffc050203072:	2781                	sext.w	a5,a5
ffffffc050203074:	ffed                	bnez	a5,ffffffc05020306e <do_mutex_lock_init+0xa>
ffffffc050203076:	0000e617          	auipc	a2,0xe
ffffffc05020307a:	dba60613          	addi	a2,a2,-582 # ffffffc050210e30 <mlocks+0x18>
ffffffc05020307e:	8732                	mv	a4,a2
ffffffc050203080:	45c1                	li	a1,16
ffffffc050203082:	4314                	lw	a3,0(a4)
ffffffc050203084:	02070713          	addi	a4,a4,32
ffffffc050203088:	02a68163          	beq	a3,a0,ffffffc0502030aa <do_mutex_lock_init+0x46>
ffffffc05020308c:	2785                	addiw	a5,a5,1
ffffffc05020308e:	feb79ae3          	bne	a5,a1,ffffffc050203082 <do_mutex_lock_init+0x1e>
ffffffc050203092:	4781                	li	a5,0
ffffffc050203094:	56fd                	li	a3,-1
ffffffc050203096:	45c1                	li	a1,16
ffffffc050203098:	4218                	lw	a4,0(a2)
ffffffc05020309a:	02060613          	addi	a2,a2,32
ffffffc05020309e:	00d70c63          	beq	a4,a3,ffffffc0502030b6 <do_mutex_lock_init+0x52>
ffffffc0502030a2:	2785                	addiw	a5,a5,1
ffffffc0502030a4:	feb79ae3          	bne	a5,a1,ffffffc050203098 <do_mutex_lock_init+0x34>
ffffffc0502030a8:	57fd                	li	a5,-1
ffffffc0502030aa:	00003717          	auipc	a4,0x3
ffffffc0502030ae:	6c072723          	sw	zero,1742(a4) # ffffffc050206778 <mlock_alloc_lock>
ffffffc0502030b2:	853e                	mv	a0,a5
ffffffc0502030b4:	8082                	ret
ffffffc0502030b6:	00579693          	slli	a3,a5,0x5
ffffffc0502030ba:	0000e717          	auipc	a4,0xe
ffffffc0502030be:	d5e70713          	addi	a4,a4,-674 # ffffffc050210e18 <mlocks>
ffffffc0502030c2:	9736                	add	a4,a4,a3
ffffffc0502030c4:	cf08                	sw	a0,24(a4)
ffffffc0502030c6:	00003717          	auipc	a4,0x3
ffffffc0502030ca:	6a072923          	sw	zero,1714(a4) # ffffffc050206778 <mlock_alloc_lock>
ffffffc0502030ce:	853e                	mv	a0,a5
ffffffc0502030d0:	8082                	ret

ffffffc0502030d2 <do_mutex_lock_acquire>:
ffffffc0502030d2:	47bd                	li	a5,15
ffffffc0502030d4:	04a7ea63          	bltu	a5,a0,ffffffc050203128 <do_mutex_lock_acquire+0x56>
ffffffc0502030d8:	7139                	addi	sp,sp,-64
ffffffc0502030da:	e456                	sd	s5,8(sp)
ffffffc0502030dc:	00551a93          	slli	s5,a0,0x5
ffffffc0502030e0:	ec4e                	sd	s3,24(sp)
ffffffc0502030e2:	e852                	sd	s4,16(sp)
ffffffc0502030e4:	050a                	slli	a0,a0,0x2
ffffffc0502030e6:	0000ea17          	auipc	s4,0xe
ffffffc0502030ea:	d32a0a13          	addi	s4,s4,-718 # ffffffc050210e18 <mlocks>
ffffffc0502030ee:	008a8993          	addi	s3,s5,8
ffffffc0502030f2:	f822                	sd	s0,48(sp)
ffffffc0502030f4:	f426                	sd	s1,40(sp)
ffffffc0502030f6:	f04a                	sd	s2,32(sp)
ffffffc0502030f8:	fc06                	sd	ra,56(sp)
ffffffc0502030fa:	99d2                	add	s3,s3,s4
ffffffc0502030fc:	00aa0933          	add	s2,s4,a0
ffffffc050203100:	015a0433          	add	s0,s4,s5
ffffffc050203104:	4485                	li	s1,1
ffffffc050203106:	0e9427af          	amoswap.w.aqrl	a5,s1,(s0)
ffffffc05020310a:	2781                	sext.w	a5,a5
ffffffc05020310c:	ffed                	bnez	a5,ffffffc050203106 <do_mutex_lock_acquire+0x34>
ffffffc05020310e:	20092783          	lw	a5,512(s2)
ffffffc050203112:	85ce                	mv	a1,s3
ffffffc050203114:	02020513          	addi	a0,tp,32 # 20 <per_cpu_stack_size-0xfe0>
ffffffc050203118:	cb89                	beqz	a5,ffffffc05020312a <do_mutex_lock_acquire+0x58>
ffffffc05020311a:	14d000ef          	jal	ffffffc050203a66 <do_block>
ffffffc05020311e:	00042023          	sw	zero,0(s0)
ffffffc050203122:	041000ef          	jal	ffffffc050203962 <do_scheduler>
ffffffc050203126:	b7c5                	j	ffffffc050203106 <do_mutex_lock_acquire+0x34>
ffffffc050203128:	8082                	ret
ffffffc05020312a:	04022703          	lw	a4,64(tp) # 40 <per_cpu_stack_size-0xfc0>
ffffffc05020312e:	70e2                	ld	ra,56(sp)
ffffffc050203130:	7442                	ld	s0,48(sp)
ffffffc050203132:	9a56                	add	s4,s4,s5
ffffffc050203134:	4785                	li	a5,1
ffffffc050203136:	00ea2e23          	sw	a4,28(s4)
ffffffc05020313a:	000a2023          	sw	zero,0(s4)
ffffffc05020313e:	20f92023          	sw	a5,512(s2)
ffffffc050203142:	74a2                	ld	s1,40(sp)
ffffffc050203144:	7902                	ld	s2,32(sp)
ffffffc050203146:	69e2                	ld	s3,24(sp)
ffffffc050203148:	6a42                	ld	s4,16(sp)
ffffffc05020314a:	6aa2                	ld	s5,8(sp)
ffffffc05020314c:	6121                	addi	sp,sp,64
ffffffc05020314e:	8082                	ret

ffffffc050203150 <do_mutex_lock_release>:
ffffffc050203150:	47bd                	li	a5,15
ffffffc050203152:	06a7e963          	bltu	a5,a0,ffffffc0502031c4 <do_mutex_lock_release+0x74>
ffffffc050203156:	00551593          	slli	a1,a0,0x5
ffffffc05020315a:	0000e617          	auipc	a2,0xe
ffffffc05020315e:	cbe60613          	addi	a2,a2,-834 # ffffffc050210e18 <mlocks>
ffffffc050203162:	00b60733          	add	a4,a2,a1
ffffffc050203166:	4685                	li	a3,1
ffffffc050203168:	0ed727af          	amoswap.w.aqrl	a5,a3,(a4)
ffffffc05020316c:	2781                	sext.w	a5,a5
ffffffc05020316e:	ffed                	bnez	a5,ffffffc050203168 <do_mutex_lock_release+0x18>
ffffffc050203170:	00b60733          	add	a4,a2,a1
ffffffc050203174:	4f54                	lw	a3,28(a4)
ffffffc050203176:	04022783          	lw	a5,64(tp) # 40 <per_cpu_stack_size-0xfc0>
ffffffc05020317a:	00f68663          	beq	a3,a5,ffffffc050203186 <do_mutex_lock_release+0x36>
ffffffc05020317e:	962e                	add	a2,a2,a1
ffffffc050203180:	00062023          	sw	zero,0(a2)
ffffffc050203184:	8082                	ret
ffffffc050203186:	00251793          	slli	a5,a0,0x2
ffffffc05020318a:	6708                	ld	a0,8(a4)
ffffffc05020318c:	97b2                	add	a5,a5,a2
ffffffc05020318e:	587d                	li	a6,-1
ffffffc050203190:	00858693          	addi	a3,a1,8
ffffffc050203194:	2007a023          	sw	zero,512(a5)
ffffffc050203198:	01072e23          	sw	a6,28(a4)
ffffffc05020319c:	00d607b3          	add	a5,a2,a3
ffffffc0502031a0:	fcf50fe3          	beq	a0,a5,ffffffc05020317e <do_mutex_lock_release+0x2e>
ffffffc0502031a4:	1101                	addi	sp,sp,-32
ffffffc0502031a6:	ec06                	sd	ra,24(sp)
ffffffc0502031a8:	e42e                	sd	a1,8(sp)
ffffffc0502031aa:	0cd000ef          	jal	ffffffc050203a76 <do_unblock>
ffffffc0502031ae:	65a2                	ld	a1,8(sp)
ffffffc0502031b0:	60e2                	ld	ra,24(sp)
ffffffc0502031b2:	0000e617          	auipc	a2,0xe
ffffffc0502031b6:	c6660613          	addi	a2,a2,-922 # ffffffc050210e18 <mlocks>
ffffffc0502031ba:	962e                	add	a2,a2,a1
ffffffc0502031bc:	00062023          	sw	zero,0(a2)
ffffffc0502031c0:	6105                	addi	sp,sp,32
ffffffc0502031c2:	8082                	ret
ffffffc0502031c4:	8082                	ret

ffffffc0502031c6 <check_and_release_locks>:
ffffffc0502031c6:	715d                	addi	sp,sp,-80
ffffffc0502031c8:	e0a2                	sd	s0,64(sp)
ffffffc0502031ca:	fc26                	sd	s1,56(sp)
ffffffc0502031cc:	f84a                	sd	s2,48(sp)
ffffffc0502031ce:	f44e                	sd	s3,40(sp)
ffffffc0502031d0:	f052                	sd	s4,32(sp)
ffffffc0502031d2:	ec56                	sd	s5,24(sp)
ffffffc0502031d4:	e85a                	sd	s6,16(sp)
ffffffc0502031d6:	e45e                	sd	s7,8(sp)
ffffffc0502031d8:	e062                	sd	s8,0(sp)
ffffffc0502031da:	e486                	sd	ra,72(sp)
ffffffc0502031dc:	8baa                	mv	s7,a0
ffffffc0502031de:	0000e997          	auipc	s3,0xe
ffffffc0502031e2:	e3a98993          	addi	s3,s3,-454 # ffffffc050211018 <mlock_status>
ffffffc0502031e6:	0000e917          	auipc	s2,0xe
ffffffc0502031ea:	c3a90913          	addi	s2,s2,-966 # ffffffc050210e20 <mlocks+0x8>
ffffffc0502031ee:	4481                	li	s1,0
ffffffc0502031f0:	0000eb17          	auipc	s6,0xe
ffffffc0502031f4:	c28b0b13          	addi	s6,s6,-984 # ffffffc050210e18 <mlocks>
ffffffc0502031f8:	4405                	li	s0,1
ffffffc0502031fa:	4a85                	li	s5,1
ffffffc0502031fc:	5c7d                	li	s8,-1
ffffffc0502031fe:	4a41                	li	s4,16
ffffffc050203200:	ff890713          	addi	a4,s2,-8
ffffffc050203204:	0e8727af          	amoswap.w.aqrl	a5,s0,(a4)
ffffffc050203208:	2781                	sext.w	a5,a5
ffffffc05020320a:	ffed                	bnez	a5,ffffffc050203204 <check_and_release_locks+0x3e>
ffffffc05020320c:	0009a783          	lw	a5,0(s3)
ffffffc050203210:	03578963          	beq	a5,s5,ffffffc050203242 <check_and_release_locks+0x7c>
ffffffc050203214:	00549793          	slli	a5,s1,0x5
ffffffc050203218:	97da                	add	a5,a5,s6
ffffffc05020321a:	0007a023          	sw	zero,0(a5)
ffffffc05020321e:	2485                	addiw	s1,s1,1
ffffffc050203220:	0991                	addi	s3,s3,4
ffffffc050203222:	02090913          	addi	s2,s2,32
ffffffc050203226:	fd449de3          	bne	s1,s4,ffffffc050203200 <check_and_release_locks+0x3a>
ffffffc05020322a:	60a6                	ld	ra,72(sp)
ffffffc05020322c:	6406                	ld	s0,64(sp)
ffffffc05020322e:	74e2                	ld	s1,56(sp)
ffffffc050203230:	7942                	ld	s2,48(sp)
ffffffc050203232:	79a2                	ld	s3,40(sp)
ffffffc050203234:	7a02                	ld	s4,32(sp)
ffffffc050203236:	6ae2                	ld	s5,24(sp)
ffffffc050203238:	6b42                	ld	s6,16(sp)
ffffffc05020323a:	6ba2                	ld	s7,8(sp)
ffffffc05020323c:	6c02                	ld	s8,0(sp)
ffffffc05020323e:	6161                	addi	sp,sp,80
ffffffc050203240:	8082                	ret
ffffffc050203242:	01492783          	lw	a5,20(s2)
ffffffc050203246:	fd7797e3          	bne	a5,s7,ffffffc050203214 <check_and_release_locks+0x4e>
ffffffc05020324a:	00093503          	ld	a0,0(s2)
ffffffc05020324e:	0009a023          	sw	zero,0(s3)
ffffffc050203252:	01892a23          	sw	s8,20(s2)
ffffffc050203256:	fb250fe3          	beq	a0,s2,ffffffc050203214 <check_and_release_locks+0x4e>
ffffffc05020325a:	01d000ef          	jal	ffffffc050203a76 <do_unblock>
ffffffc05020325e:	bf5d                	j	ffffffc050203214 <check_and_release_locks+0x4e>

ffffffc050203260 <init_memory_manager>:
ffffffc050203260:	1141                	addi	sp,sp,-16
ffffffc050203262:	6589                	lui	a1,0x2
ffffffc050203264:	0000e517          	auipc	a0,0xe
ffffffc050203268:	df450513          	addi	a0,a0,-524 # ffffffc050211058 <page_bitmap>
ffffffc05020326c:	e406                	sd	ra,8(sp)
ffffffc05020326e:	3f5010ef          	jal	ffffffc050204e62 <bzero>
ffffffc050203272:	60a2                	ld	ra,8(sp)
ffffffc050203274:	00003797          	auipc	a5,0x3
ffffffc050203278:	5007a623          	sw	zero,1292(a5) # ffffffc050206780 <usepage>
ffffffc05020327c:	0141                	addi	sp,sp,16
ffffffc05020327e:	8082                	ret

ffffffc050203280 <is_memory_full>:
ffffffc050203280:	0000e797          	auipc	a5,0xe
ffffffc050203284:	dd878793          	addi	a5,a5,-552 # ffffffc050211058 <page_bitmap>
ffffffc050203288:	00010617          	auipc	a2,0x10
ffffffc05020328c:	dd060613          	addi	a2,a2,-560 # ffffffc050213058 <alloc_info>
ffffffc050203290:	0ff00693          	li	a3,255
ffffffc050203294:	a019                	j	ffffffc05020329a <is_memory_full+0x1a>
ffffffc050203296:	00c78963          	beq	a5,a2,ffffffc0502032a8 <is_memory_full+0x28>
ffffffc05020329a:	0007c703          	lbu	a4,0(a5)
ffffffc05020329e:	0785                	addi	a5,a5,1
ffffffc0502032a0:	fed70be3          	beq	a4,a3,ffffffc050203296 <is_memory_full+0x16>
ffffffc0502032a4:	4501                	li	a0,0
ffffffc0502032a6:	8082                	ret
ffffffc0502032a8:	4505                	li	a0,1
ffffffc0502032aa:	8082                	ret

ffffffc0502032ac <allocPage>:
ffffffc0502032ac:	62c1                	lui	t0,0x10
ffffffc0502032ae:	02a2c2bb          	divw	t0,t0,a0
ffffffc0502032b2:	7179                	addi	sp,sp,-48
ffffffc0502032b4:	f022                	sd	s0,32(sp)
ffffffc0502032b6:	ec26                	sd	s1,24(sp)
ffffffc0502032b8:	e0300413          	li	s0,-509
ffffffc0502032bc:	6485                	lui	s1,0x1
ffffffc0502032be:	3fb00393          	li	t2,1019
ffffffc0502032c2:	e84a                	sd	s2,16(sp)
ffffffc0502032c4:	00003797          	auipc	a5,0x3
ffffffc0502032c8:	4947b783          	ld	a5,1172(a5) # ffffffc050206758 <kernMemCurr>
ffffffc0502032cc:	f406                	sd	ra,40(sp)
ffffffc0502032ce:	8f2a                	mv	t5,a0
ffffffc0502032d0:	00c5161b          	slliw	a2,a0,0xc
ffffffc0502032d4:	14fd                	addi	s1,s1,-1 # fff <per_cpu_stack_size-0x1>
ffffffc0502032d6:	0476                	slli	s0,s0,0x1d
ffffffc0502032d8:	03f2                	slli	t2,t2,0x1c
ffffffc0502032da:	4301                	li	t1,0
ffffffc0502032dc:	0000ef97          	auipc	t6,0xe
ffffffc0502032e0:	d7cf8f93          	addi	t6,t6,-644 # ffffffc050211058 <page_bitmap>
ffffffc0502032e4:	797d                	lui	s2,0xfffff
ffffffc0502032e6:	00010897          	auipc	a7,0x10
ffffffc0502032ea:	d7288893          	addi	a7,a7,-654 # ffffffc050213058 <alloc_info>
ffffffc0502032ee:	0ff00693          	li	a3,255
ffffffc0502032f2:	0012929b          	slliw	t0,t0,0x1
ffffffc0502032f6:	a025                	j	ffffffc05020331e <allocPage+0x72>
ffffffc0502032f8:	2305                	addiw	t1,t1,1
ffffffc0502032fa:	0c62ce63          	blt	t0,t1,ffffffc0502033d6 <allocPage+0x12a>
ffffffc0502032fe:	00750e33          	add	t3,a0,t2
ffffffc050203302:	00fe5713          	srli	a4,t3,0xf
ffffffc050203306:	977e                	add	a4,a4,t6
ffffffc050203308:	00074e83          	lbu	t4,0(a4)
ffffffc05020330c:	00ce5593          	srli	a1,t3,0xc
ffffffc050203310:	899d                	andi	a1,a1,7
ffffffc050203312:	40bed83b          	sraw	a6,t4,a1
ffffffc050203316:	00187813          	andi	a6,a6,1
ffffffc05020331a:	02080a63          	beqz	a6,ffffffc05020334e <allocPage+0xa2>
ffffffc05020331e:	97a6                	add	a5,a5,s1
ffffffc050203320:	0127f533          	and	a0,a5,s2
ffffffc050203324:	00a607b3          	add	a5,a2,a0
ffffffc050203328:	fc87e8e3          	bltu	a5,s0,ffffffc0502032f8 <allocPage+0x4c>
ffffffc05020332c:	0000e797          	auipc	a5,0xe
ffffffc050203330:	d2c78793          	addi	a5,a5,-724 # ffffffc050211058 <page_bitmap>
ffffffc050203334:	a019                	j	ffffffc05020333a <allocPage+0x8e>
ffffffc050203336:	0d178b63          	beq	a5,a7,ffffffc05020340c <allocPage+0x160>
ffffffc05020333a:	0007c703          	lbu	a4,0(a5)
ffffffc05020333e:	0785                	addi	a5,a5,1
ffffffc050203340:	fed70be3          	beq	a4,a3,ffffffc050203336 <allocPage+0x8a>
ffffffc050203344:	fe0297b7          	lui	a5,0xfe029
ffffffc050203348:	0785                	addi	a5,a5,1 # fffffffffe029001 <__BSS_END__+0x3fade0a7c9>
ffffffc05020334a:	07b6                	slli	a5,a5,0xd
ffffffc05020334c:	b775                	j	ffffffc0502032f8 <allocPage+0x4c>
ffffffc05020334e:	00003697          	auipc	a3,0x3
ffffffc050203352:	40f6b523          	sd	a5,1034(a3) # ffffffc050206758 <kernMemCurr>
ffffffc050203356:	05e05b63          	blez	t5,ffffffc0502033ac <allocPage+0x100>
ffffffc05020335a:	4785                	li	a5,1
ffffffc05020335c:	00b797bb          	sllw	a5,a5,a1
ffffffc050203360:	00feeeb3          	or	t4,t4,a5
ffffffc050203364:	01d70023          	sb	t4,0(a4)
ffffffc050203368:	4885                	li	a7,1
ffffffc05020336a:	051f0163          	beq	t5,a7,ffffffc0502033ac <allocPage+0x100>
ffffffc05020336e:	ffef081b          	addiw	a6,t5,-2
ffffffc050203372:	02081793          	slli	a5,a6,0x20
ffffffc050203376:	03fb0737          	lui	a4,0x3fb0
ffffffc05020337a:	0147d813          	srli	a6,a5,0x14
ffffffc05020337e:	9746                	add	a4,a4,a7
ffffffc050203380:	6789                	lui	a5,0x2
ffffffc050203382:	0732                	slli	a4,a4,0xc
ffffffc050203384:	983e                	add	a6,a6,a5
ffffffc050203386:	972a                	add	a4,a4,a0
ffffffc050203388:	9872                	add	a6,a6,t3
ffffffc05020338a:	6305                	lui	t1,0x1
ffffffc05020338c:	00f75693          	srli	a3,a4,0xf
ffffffc050203390:	96fe                	add	a3,a3,t6
ffffffc050203392:	0006c583          	lbu	a1,0(a3)
ffffffc050203396:	00c75793          	srli	a5,a4,0xc
ffffffc05020339a:	8b9d                	andi	a5,a5,7
ffffffc05020339c:	00f897bb          	sllw	a5,a7,a5
ffffffc0502033a0:	8fcd                	or	a5,a5,a1
ffffffc0502033a2:	00f68023          	sb	a5,0(a3)
ffffffc0502033a6:	971a                	add	a4,a4,t1
ffffffc0502033a8:	fee812e3          	bne	a6,a4,ffffffc05020338c <allocPage+0xe0>
ffffffc0502033ac:	00003797          	auipc	a5,0x3
ffffffc0502033b0:	3d47a783          	lw	a5,980(a5) # ffffffc050206780 <usepage>
ffffffc0502033b4:	4581                	li	a1,0
ffffffc0502033b6:	e42a                	sd	a0,8(sp)
ffffffc0502033b8:	01e787bb          	addw	a5,a5,t5
ffffffc0502033bc:	00003717          	auipc	a4,0x3
ffffffc0502033c0:	3cf72223          	sw	a5,964(a4) # ffffffc050206780 <usepage>
ffffffc0502033c4:	28b010ef          	jal	ffffffc050204e4e <memset>
ffffffc0502033c8:	70a2                	ld	ra,40(sp)
ffffffc0502033ca:	7402                	ld	s0,32(sp)
ffffffc0502033cc:	6522                	ld	a0,8(sp)
ffffffc0502033ce:	64e2                	ld	s1,24(sp)
ffffffc0502033d0:	6942                	ld	s2,16(sp)
ffffffc0502033d2:	6145                	addi	sp,sp,48
ffffffc0502033d4:	8082                	ret
ffffffc0502033d6:	00002517          	auipc	a0,0x2
ffffffc0502033da:	fca50513          	addi	a0,a0,-54 # ffffffc0502053a0 <strcat+0x440>
ffffffc0502033de:	00003717          	auipc	a4,0x3
ffffffc0502033e2:	36f73d23          	sd	a5,890(a4) # ffffffc050206758 <kernMemCurr>
ffffffc0502033e6:	193010ef          	jal	ffffffc050204d78 <printk>
ffffffc0502033ea:	05800693          	li	a3,88
ffffffc0502033ee:	00002617          	auipc	a2,0x2
ffffffc0502033f2:	f9a60613          	addi	a2,a2,-102 # ffffffc050205388 <strcat+0x428>
ffffffc0502033f6:	00002597          	auipc	a1,0x2
ffffffc0502033fa:	1ea58593          	addi	a1,a1,490 # ffffffc0502055e0 <__FUNCTION__.2>
ffffffc0502033fe:	00002517          	auipc	a0,0x2
ffffffc050203402:	dfa50513          	addi	a0,a0,-518 # ffffffc0502051f8 <strcat+0x298>
ffffffc050203406:	173010ef          	jal	ffffffc050204d78 <printk>
ffffffc05020340a:	a001                	j	ffffffc05020340a <allocPage+0x15e>
ffffffc05020340c:	fe0297b7          	lui	a5,0xfe029
ffffffc050203410:	0785                	addi	a5,a5,1 # fffffffffe029001 <__BSS_END__+0x3fade0a7c9>
ffffffc050203412:	07b6                	slli	a5,a5,0xd
ffffffc050203414:	00002517          	auipc	a0,0x2
ffffffc050203418:	f5c50513          	addi	a0,a0,-164 # ffffffc050205370 <strcat+0x410>
ffffffc05020341c:	00003717          	auipc	a4,0x3
ffffffc050203420:	32f73e23          	sd	a5,828(a4) # ffffffc050206758 <kernMemCurr>
ffffffc050203424:	155010ef          	jal	ffffffc050204d78 <printk>
ffffffc050203428:	05100693          	li	a3,81
ffffffc05020342c:	00002617          	auipc	a2,0x2
ffffffc050203430:	f5c60613          	addi	a2,a2,-164 # ffffffc050205388 <strcat+0x428>
ffffffc050203434:	00002597          	auipc	a1,0x2
ffffffc050203438:	1ac58593          	addi	a1,a1,428 # ffffffc0502055e0 <__FUNCTION__.2>
ffffffc05020343c:	00002517          	auipc	a0,0x2
ffffffc050203440:	dbc50513          	addi	a0,a0,-580 # ffffffc0502051f8 <strcat+0x298>
ffffffc050203444:	135010ef          	jal	ffffffc050204d78 <printk>
ffffffc050203448:	a001                	j	ffffffc050203448 <allocPage+0x19c>

ffffffc05020344a <allocKernelPage>:
ffffffc05020344a:	b58d                	j	ffffffc0502032ac <allocPage>

ffffffc05020344c <allocUserPage>:
ffffffc05020344c:	b585                	j	ffffffc0502032ac <allocPage>

ffffffc05020344e <freePage>:
ffffffc05020344e:	c529                	beqz	a0,ffffffc050203498 <freePage+0x4a>
ffffffc050203450:	3fb00793          	li	a5,1019
ffffffc050203454:	07f2                	slli	a5,a5,0x1c
ffffffc050203456:	953e                	add	a0,a0,a5
ffffffc050203458:	100007b7          	lui	a5,0x10000
ffffffc05020345c:	02f57e63          	bgeu	a0,a5,ffffffc050203498 <freePage+0x4a>
ffffffc050203460:	00f55793          	srli	a5,a0,0xf
ffffffc050203464:	0000e717          	auipc	a4,0xe
ffffffc050203468:	bf470713          	addi	a4,a4,-1036 # ffffffc050211058 <page_bitmap>
ffffffc05020346c:	973e                	add	a4,a4,a5
ffffffc05020346e:	8131                	srli	a0,a0,0xc
ffffffc050203470:	00074603          	lbu	a2,0(a4)
ffffffc050203474:	00003697          	auipc	a3,0x3
ffffffc050203478:	30c6a683          	lw	a3,780(a3) # ffffffc050206780 <usepage>
ffffffc05020347c:	891d                	andi	a0,a0,7
ffffffc05020347e:	4785                	li	a5,1
ffffffc050203480:	00a797bb          	sllw	a5,a5,a0
ffffffc050203484:	fff7c793          	not	a5,a5
ffffffc050203488:	8ff1                	and	a5,a5,a2
ffffffc05020348a:	36fd                	addiw	a3,a3,-1
ffffffc05020348c:	00f70023          	sb	a5,0(a4)
ffffffc050203490:	00003797          	auipc	a5,0x3
ffffffc050203494:	2ed7a823          	sw	a3,752(a5) # ffffffc050206780 <usepage>
ffffffc050203498:	8082                	ret

ffffffc05020349a <kmalloc>:
ffffffc05020349a:	4505                	li	a0,1
ffffffc05020349c:	bd01                	j	ffffffc0502032ac <allocPage>

ffffffc05020349e <share_pgtable>:
ffffffc05020349e:	6605                	lui	a2,0x1
ffffffc0502034a0:	1950106f          	j	ffffffc050204e34 <memcpy>

ffffffc0502034a4 <init_uva_alloc>:
ffffffc0502034a4:	00003617          	auipc	a2,0x3
ffffffc0502034a8:	23c60613          	addi	a2,a2,572 # ffffffc0502066e0 <free_list>
ffffffc0502034ac:	6614                	ld	a3,8(a2)
ffffffc0502034ae:	00010797          	auipc	a5,0x10
ffffffc0502034b2:	baa78793          	addi	a5,a5,-1110 # ffffffc050213058 <alloc_info>
ffffffc0502034b6:	0001a597          	auipc	a1,0x1a
ffffffc0502034ba:	ba258593          	addi	a1,a1,-1118 # ffffffc05021d058 <pid0_pcb>
ffffffc0502034be:	e794                	sd	a3,8(a5)
ffffffc0502034c0:	e390                	sd	a2,0(a5)
ffffffc0502034c2:	e29c                	sd	a5,0(a3)
ffffffc0502034c4:	8736                	mv	a4,a3
ffffffc0502034c6:	0007b823          	sd	zero,16(a5)
ffffffc0502034ca:	0007bc23          	sd	zero,24(a5)
ffffffc0502034ce:	0207a023          	sw	zero,32(a5)
ffffffc0502034d2:	0207a223          	sw	zero,36(a5)
ffffffc0502034d6:	86be                	mv	a3,a5
ffffffc0502034d8:	02878793          	addi	a5,a5,40
ffffffc0502034dc:	feb791e3          	bne	a5,a1,ffffffc0502034be <init_uva_alloc+0x1a>
ffffffc0502034e0:	0001a797          	auipc	a5,0x1a
ffffffc0502034e4:	b5078793          	addi	a5,a5,-1200 # ffffffc05021d030 <alloc_info+0x9fd8>
ffffffc0502034e8:	e61c                	sd	a5,8(a2)
ffffffc0502034ea:	0001a697          	auipc	a3,0x1a
ffffffc0502034ee:	b4c6b323          	sd	a2,-1210(a3) # ffffffc05021d030 <alloc_info+0x9fd8>
ffffffc0502034f2:	0001a697          	auipc	a3,0x1a
ffffffc0502034f6:	b4e6b323          	sd	a4,-1210(a3) # ffffffc05021d038 <alloc_info+0x9fe0>
ffffffc0502034fa:	e31c                	sd	a5,0(a4)
ffffffc0502034fc:	0001a797          	auipc	a5,0x1a
ffffffc050203500:	b407b223          	sd	zero,-1212(a5) # ffffffc05021d040 <alloc_info+0x9fe8>
ffffffc050203504:	0001a797          	auipc	a5,0x1a
ffffffc050203508:	b407b223          	sd	zero,-1212(a5) # ffffffc05021d048 <alloc_info+0x9ff0>
ffffffc05020350c:	0001a797          	auipc	a5,0x1a
ffffffc050203510:	b407b223          	sd	zero,-1212(a5) # ffffffc05021d050 <alloc_info+0x9ff8>
ffffffc050203514:	8082                	ret

ffffffc050203516 <map_page_helper>:
ffffffc050203516:	0566                	slli	a0,a0,0x19
ffffffc050203518:	03755793          	srli	a5,a0,0x37
ffffffc05020351c:	078e                	slli	a5,a5,0x3
ffffffc05020351e:	963e                	add	a2,a2,a5
ffffffc050203520:	621c                	ld	a5,0(a2)
ffffffc050203522:	7179                	addi	sp,sp,-48
ffffffc050203524:	02e55893          	srli	a7,a0,0x2e
ffffffc050203528:	f406                	sd	ra,40(sp)
ffffffc05020352a:	9115                	srli	a0,a0,0x25
ffffffc05020352c:	1ff8f893          	andi	a7,a7,511
ffffffc050203530:	1ff57813          	andi	a6,a0,511
ffffffc050203534:	c3a9                	beqz	a5,ffffffc050203576 <map_page_helper+0x60>
ffffffc050203536:	00a7d693          	srli	a3,a5,0xa
ffffffc05020353a:	57fd                	li	a5,-1
ffffffc05020353c:	179a                	slli	a5,a5,0x26
ffffffc05020353e:	06b2                	slli	a3,a3,0xc
ffffffc050203540:	96be                	add	a3,a3,a5
ffffffc050203542:	088e                	slli	a7,a7,0x3
ffffffc050203544:	96c6                	add	a3,a3,a7
ffffffc050203546:	629c                	ld	a5,0(a3)
ffffffc050203548:	c3c1                	beqz	a5,ffffffc0502035c8 <map_page_helper+0xb2>
ffffffc05020354a:	83a9                	srli	a5,a5,0xa
ffffffc05020354c:	577d                	li	a4,-1
ffffffc05020354e:	07b2                	slli	a5,a5,0xc
ffffffc050203550:	171a                	slli	a4,a4,0x26
ffffffc050203552:	080e                	slli	a6,a6,0x3
ffffffc050203554:	97ba                	add	a5,a5,a4
ffffffc050203556:	97c2                	add	a5,a5,a6
ffffffc050203558:	c991                	beqz	a1,ffffffc05020356c <map_page_helper+0x56>
ffffffc05020355a:	6398                	ld	a4,0(a5)
ffffffc05020355c:	00c5d693          	srli	a3,a1,0xc
ffffffc050203560:	06aa                	slli	a3,a3,0xa
ffffffc050203562:	3ff77713          	andi	a4,a4,1023
ffffffc050203566:	8f55                	or	a4,a4,a3
ffffffc050203568:	0df76593          	ori	a1,a4,223
ffffffc05020356c:	70a2                	ld	ra,40(sp)
ffffffc05020356e:	e38c                	sd	a1,0(a5)
ffffffc050203570:	4505                	li	a0,1
ffffffc050203572:	6145                	addi	sp,sp,48
ffffffc050203574:	8082                	ret
ffffffc050203576:	4505                	li	a0,1
ffffffc050203578:	ec2e                	sd	a1,24(sp)
ffffffc05020357a:	e842                	sd	a6,16(sp)
ffffffc05020357c:	e446                	sd	a7,8(sp)
ffffffc05020357e:	e032                	sd	a2,0(sp)
ffffffc050203580:	d2dff0ef          	jal	ffffffc0502032ac <allocPage>
ffffffc050203584:	6602                	ld	a2,0(sp)
ffffffc050203586:	4785                	li	a5,1
ffffffc050203588:	179a                	slli	a5,a5,0x26
ffffffc05020358a:	6218                	ld	a4,0(a2)
ffffffc05020358c:	00f506b3          	add	a3,a0,a5
ffffffc050203590:	82b1                	srli	a3,a3,0xc
ffffffc050203592:	3ff77713          	andi	a4,a4,1023
ffffffc050203596:	06aa                	slli	a3,a3,0xa
ffffffc050203598:	8ed9                	or	a3,a3,a4
ffffffc05020359a:	0116e693          	ori	a3,a3,17
ffffffc05020359e:	fc000537          	lui	a0,0xfc000
ffffffc0502035a2:	00a6d713          	srli	a4,a3,0xa
ffffffc0502035a6:	0505                	addi	a0,a0,1 # fffffffffc000001 <__BSS_END__+0x3fabde17c9>
ffffffc0502035a8:	65e2                	ld	a1,24(sp)
ffffffc0502035aa:	6842                	ld	a6,16(sp)
ffffffc0502035ac:	68a2                	ld	a7,8(sp)
ffffffc0502035ae:	0732                	slli	a4,a4,0xc
ffffffc0502035b0:	0532                	slli	a0,a0,0xc
ffffffc0502035b2:	40f707b3          	sub	a5,a4,a5
ffffffc0502035b6:	e214                	sd	a3,0(a2)
ffffffc0502035b8:	972a                	add	a4,a4,a0
ffffffc0502035ba:	0007b023          	sd	zero,0(a5)
ffffffc0502035be:	07a1                	addi	a5,a5,8
ffffffc0502035c0:	fef71de3          	bne	a4,a5,ffffffc0502035ba <map_page_helper+0xa4>
ffffffc0502035c4:	621c                	ld	a5,0(a2)
ffffffc0502035c6:	bf85                	j	ffffffc050203536 <map_page_helper+0x20>
ffffffc0502035c8:	4505                	li	a0,1
ffffffc0502035ca:	e82e                	sd	a1,16(sp)
ffffffc0502035cc:	e442                	sd	a6,8(sp)
ffffffc0502035ce:	e036                	sd	a3,0(sp)
ffffffc0502035d0:	cddff0ef          	jal	ffffffc0502032ac <allocPage>
ffffffc0502035d4:	6682                	ld	a3,0(sp)
ffffffc0502035d6:	4785                	li	a5,1
ffffffc0502035d8:	179a                	slli	a5,a5,0x26
ffffffc0502035da:	6298                	ld	a4,0(a3)
ffffffc0502035dc:	00f50633          	add	a2,a0,a5
ffffffc0502035e0:	8231                	srli	a2,a2,0xc
ffffffc0502035e2:	3ff77713          	andi	a4,a4,1023
ffffffc0502035e6:	062a                	slli	a2,a2,0xa
ffffffc0502035e8:	8e59                	or	a2,a2,a4
ffffffc0502035ea:	01166613          	ori	a2,a2,17
ffffffc0502035ee:	fc000537          	lui	a0,0xfc000
ffffffc0502035f2:	00a65713          	srli	a4,a2,0xa
ffffffc0502035f6:	0505                	addi	a0,a0,1 # fffffffffc000001 <__BSS_END__+0x3fabde17c9>
ffffffc0502035f8:	65c2                	ld	a1,16(sp)
ffffffc0502035fa:	6822                	ld	a6,8(sp)
ffffffc0502035fc:	0732                	slli	a4,a4,0xc
ffffffc0502035fe:	0532                	slli	a0,a0,0xc
ffffffc050203600:	40f707b3          	sub	a5,a4,a5
ffffffc050203604:	e290                	sd	a2,0(a3)
ffffffc050203606:	972a                	add	a4,a4,a0
ffffffc050203608:	0007b023          	sd	zero,0(a5)
ffffffc05020360c:	07a1                	addi	a5,a5,8
ffffffc05020360e:	fef71de3          	bne	a4,a5,ffffffc050203608 <map_page_helper+0xf2>
ffffffc050203612:	629c                	ld	a5,0(a3)
ffffffc050203614:	bf1d                	j	ffffffc05020354a <map_page_helper+0x34>

ffffffc050203616 <swapPage>:
ffffffc050203616:	1101                	addi	sp,sp,-32
ffffffc050203618:	00003717          	auipc	a4,0x3
ffffffc05020361c:	0c870713          	addi	a4,a4,200 # ffffffc0502066e0 <free_list>
ffffffc050203620:	e822                	sd	s0,16(sp)
ffffffc050203622:	6b00                	ld	s0,16(a4)
ffffffc050203624:	ec06                	sd	ra,24(sp)
ffffffc050203626:	e426                	sd	s1,8(sp)
ffffffc050203628:	00003797          	auipc	a5,0x3
ffffffc05020362c:	0c878793          	addi	a5,a5,200 # ffffffc0502066f0 <in_mem_list>
ffffffc050203630:	08f40a63          	beq	s0,a5,ffffffc0502036c4 <swapPage+0xae>
ffffffc050203634:	6414                	ld	a3,8(s0)
ffffffc050203636:	6010                	ld	a2,0(s0)
ffffffc050203638:	fe0297b7          	lui	a5,0xfe029
ffffffc05020363c:	07b6                	slli	a5,a5,0xd
ffffffc05020363e:	e614                	sd	a3,8(a2)
ffffffc050203640:	e290                	sd	a2,0(a3)
ffffffc050203642:	7714                	ld	a3,40(a4)
ffffffc050203644:	00003497          	auipc	s1,0x3
ffffffc050203648:	11c48493          	addi	s1,s1,284 # ffffffc050206760 <image_end_sec>
ffffffc05020364c:	f2078793          	addi	a5,a5,-224 # fffffffffe028f20 <__BSS_END__+0x3fade0a6e8>
ffffffc050203650:	f700                	sd	s0,40(a4)
ffffffc050203652:	639c                	ld	a5,0(a5)
ffffffc050203654:	0004e603          	lwu	a2,0(s1)
ffffffc050203658:	01846503          	lwu	a0,24(s0)
ffffffc05020365c:	00003717          	auipc	a4,0x3
ffffffc050203660:	0a470713          	addi	a4,a4,164 # ffffffc050206700 <swap_out_list>
ffffffc050203664:	e018                	sd	a4,0(s0)
ffffffc050203666:	e414                	sd	a3,8(s0)
ffffffc050203668:	e280                	sd	s0,0(a3)
ffffffc05020366a:	4701                	li	a4,0
ffffffc05020366c:	4681                	li	a3,0
ffffffc05020366e:	45a1                	li	a1,8
ffffffc050203670:	9782                	jalr	a5
ffffffc050203672:	5050                	lw	a2,36(s0)
ffffffc050203674:	0001a697          	auipc	a3,0x1a
ffffffc050203678:	ac468693          	addi	a3,a3,-1340 # ffffffc05021d138 <pcb>
ffffffc05020367c:	6098                	ld	a4,0(s1)
ffffffc05020367e:	00361793          	slli	a5,a2,0x3
ffffffc050203682:	8f91                	sub	a5,a5,a2
ffffffc050203684:	0792                	slli	a5,a5,0x4
ffffffc050203686:	97b6                	add	a5,a5,a3
ffffffc050203688:	67b0                	ld	a2,72(a5)
ffffffc05020368a:	6808                	ld	a0,16(s0)
ffffffc05020368c:	d018                	sw	a4,32(s0)
ffffffc05020368e:	4581                	li	a1,0
ffffffc050203690:	0721                	addi	a4,a4,8
ffffffc050203692:	e098                	sd	a4,0(s1)
ffffffc050203694:	e83ff0ef          	jal	ffffffc050203516 <map_page_helper>
ffffffc050203698:	6c18                	ld	a4,24(s0)
ffffffc05020369a:	fc0006b7          	lui	a3,0xfc000
ffffffc05020369e:	57fd                	li	a5,-1
ffffffc0502036a0:	0685                	addi	a3,a3,1 # fffffffffc000001 <__BSS_END__+0x3fabde17c9>
ffffffc0502036a2:	179a                	slli	a5,a5,0x26
ffffffc0502036a4:	06b2                	slli	a3,a3,0xc
ffffffc0502036a6:	97ba                	add	a5,a5,a4
ffffffc0502036a8:	9736                	add	a4,a4,a3
ffffffc0502036aa:	0007b023          	sd	zero,0(a5)
ffffffc0502036ae:	07a1                	addi	a5,a5,8
ffffffc0502036b0:	fee79de3          	bne	a5,a4,ffffffc0502036aa <swapPage+0x94>
ffffffc0502036b4:	12000073          	sfence.vma
ffffffc0502036b8:	60e2                	ld	ra,24(sp)
ffffffc0502036ba:	8522                	mv	a0,s0
ffffffc0502036bc:	6442                	ld	s0,16(sp)
ffffffc0502036be:	64a2                	ld	s1,8(sp)
ffffffc0502036c0:	6105                	addi	sp,sp,32
ffffffc0502036c2:	8082                	ret
ffffffc0502036c4:	00002517          	auipc	a0,0x2
ffffffc0502036c8:	cfc50513          	addi	a0,a0,-772 # ffffffc0502053c0 <strcat+0x460>
ffffffc0502036cc:	6ac010ef          	jal	ffffffc050204d78 <printk>
ffffffc0502036d0:	09400693          	li	a3,148
ffffffc0502036d4:	00002617          	auipc	a2,0x2
ffffffc0502036d8:	cb460613          	addi	a2,a2,-844 # ffffffc050205388 <strcat+0x428>
ffffffc0502036dc:	00002597          	auipc	a1,0x2
ffffffc0502036e0:	f1458593          	addi	a1,a1,-236 # ffffffc0502055f0 <__FUNCTION__.1>
ffffffc0502036e4:	00002517          	auipc	a0,0x2
ffffffc0502036e8:	b1450513          	addi	a0,a0,-1260 # ffffffc0502051f8 <strcat+0x298>
ffffffc0502036ec:	68c010ef          	jal	ffffffc050204d78 <printk>
ffffffc0502036f0:	a001                	j	ffffffc0502036f0 <swapPage+0xda>

ffffffc0502036f2 <uva_allocPage>:
ffffffc0502036f2:	1141                	addi	sp,sp,-16
ffffffc0502036f4:	00003697          	auipc	a3,0x3
ffffffc0502036f8:	fec68693          	addi	a3,a3,-20 # ffffffc0502066e0 <free_list>
ffffffc0502036fc:	e022                	sd	s0,0(sp)
ffffffc0502036fe:	7280                	ld	s0,32(a3)
ffffffc050203700:	e406                	sd	ra,8(sp)
ffffffc050203702:	00003717          	auipc	a4,0x3
ffffffc050203706:	ffe70713          	addi	a4,a4,-2 # ffffffc050206700 <swap_out_list>
ffffffc05020370a:	08e40763          	beq	s0,a4,ffffffc050203798 <uva_allocPage+0xa6>
ffffffc05020370e:	00003617          	auipc	a2,0x3
ffffffc050203712:	06e62603          	lw	a2,110(a2) # ffffffc05020677c <pgdir_id>
ffffffc050203716:	a021                	j	ffffffc05020371e <uva_allocPage+0x2c>
ffffffc050203718:	6000                	ld	s0,0(s0)
ffffffc05020371a:	06e40f63          	beq	s0,a4,ffffffc050203798 <uva_allocPage+0xa6>
ffffffc05020371e:	681c                	ld	a5,16(s0)
ffffffc050203720:	feb79ce3          	bne	a5,a1,ffffffc050203718 <uva_allocPage+0x26>
ffffffc050203724:	505c                	lw	a5,36(s0)
ffffffc050203726:	fec799e3          	bne	a5,a2,ffffffc050203718 <uva_allocPage+0x26>
ffffffc05020372a:	eedff0ef          	jal	ffffffc050203616 <swapPage>
ffffffc05020372e:	6d10                	ld	a2,24(a0)
ffffffc050203730:	641c                	ld	a5,8(s0)
ffffffc050203732:	6018                	ld	a4,0(s0)
ffffffc050203734:	ec10                	sd	a2,24(s0)
ffffffc050203736:	00003697          	auipc	a3,0x3
ffffffc05020373a:	faa68693          	addi	a3,a3,-86 # ffffffc0502066e0 <free_list>
ffffffc05020373e:	e71c                	sd	a5,8(a4)
ffffffc050203740:	e398                	sd	a4,0(a5)
ffffffc050203742:	6e9c                	ld	a5,24(a3)
ffffffc050203744:	00003617          	auipc	a2,0x3
ffffffc050203748:	fac60613          	addi	a2,a2,-84 # ffffffc0502066f0 <in_mem_list>
ffffffc05020374c:	ee80                	sd	s0,24(a3)
ffffffc05020374e:	e010                	sd	a2,0(s0)
ffffffc050203750:	e41c                	sd	a5,8(s0)
ffffffc050203752:	e380                	sd	s0,0(a5)
ffffffc050203754:	93cff0ef          	jal	ffffffc050202890 <get_current_cpu_id>
ffffffc050203758:	04823603          	ld	a2,72(tp) # 48 <per_cpu_stack_size-0xfb8>
ffffffc05020375c:	6c0c                	ld	a1,24(s0)
ffffffc05020375e:	6808                	ld	a0,16(s0)
ffffffc050203760:	db7ff0ef          	jal	ffffffc050203516 <map_page_helper>
ffffffc050203764:	12000073          	sfence.vma
ffffffc050203768:	fe0297b7          	lui	a5,0xfe029
ffffffc05020376c:	07b6                	slli	a5,a5,0xd
ffffffc05020376e:	f1878793          	addi	a5,a5,-232 # fffffffffe028f18 <__BSS_END__+0x3fade0a6e0>
ffffffc050203772:	02046603          	lwu	a2,32(s0)
ffffffc050203776:	01846503          	lwu	a0,24(s0)
ffffffc05020377a:	639c                	ld	a5,0(a5)
ffffffc05020377c:	4701                	li	a4,0
ffffffc05020377e:	4681                	li	a3,0
ffffffc050203780:	45a1                	li	a1,8
ffffffc050203782:	9782                	jalr	a5
ffffffc050203784:	6c08                	ld	a0,24(s0)
ffffffc050203786:	60a2                	ld	ra,8(sp)
ffffffc050203788:	02042023          	sw	zero,32(s0)
ffffffc05020378c:	6402                	ld	s0,0(sp)
ffffffc05020378e:	57fd                	li	a5,-1
ffffffc050203790:	179a                	slli	a5,a5,0x26
ffffffc050203792:	953e                	add	a0,a0,a5
ffffffc050203794:	0141                	addi	sp,sp,16
ffffffc050203796:	8082                	ret
ffffffc050203798:	6280                	ld	s0,0(a3)
ffffffc05020379a:	06d40463          	beq	s0,a3,ffffffc050203802 <uva_allocPage+0x110>
ffffffc05020379e:	6418                	ld	a4,8(s0)
ffffffc0502037a0:	6010                	ld	a2,0(s0)
ffffffc0502037a2:	00003517          	auipc	a0,0x3
ffffffc0502037a6:	fda52503          	lw	a0,-38(a0) # ffffffc05020677c <pgdir_id>
ffffffc0502037aa:	00003817          	auipc	a6,0x3
ffffffc0502037ae:	f4680813          	addi	a6,a6,-186 # ffffffc0502066f0 <in_mem_list>
ffffffc0502037b2:	e618                	sd	a4,8(a2)
ffffffc0502037b4:	6e9c                	ld	a5,24(a3)
ffffffc0502037b6:	e310                	sd	a2,0(a4)
ffffffc0502037b8:	ee80                	sd	s0,24(a3)
ffffffc0502037ba:	e41c                	sd	a5,8(s0)
ffffffc0502037bc:	01043023          	sd	a6,0(s0)
ffffffc0502037c0:	00003717          	auipc	a4,0x3
ffffffc0502037c4:	fc072703          	lw	a4,-64(a4) # ffffffc050206780 <usepage>
ffffffc0502037c8:	e380                	sd	s0,0(a5)
ffffffc0502037ca:	e80c                	sd	a1,16(s0)
ffffffc0502037cc:	d048                	sw	a0,36(s0)
ffffffc0502037ce:	1ff00793          	li	a5,511
ffffffc0502037d2:	00e7cd63          	blt	a5,a4,ffffffc0502037ec <uva_allocPage+0xfa>
ffffffc0502037d6:	4505                	li	a0,1
ffffffc0502037d8:	ad5ff0ef          	jal	ffffffc0502032ac <allocPage>
ffffffc0502037dc:	4785                	li	a5,1
ffffffc0502037de:	179a                	slli	a5,a5,0x26
ffffffc0502037e0:	97aa                	add	a5,a5,a0
ffffffc0502037e2:	60a2                	ld	ra,8(sp)
ffffffc0502037e4:	ec1c                	sd	a5,24(s0)
ffffffc0502037e6:	6402                	ld	s0,0(sp)
ffffffc0502037e8:	0141                	addi	sp,sp,16
ffffffc0502037ea:	8082                	ret
ffffffc0502037ec:	e2bff0ef          	jal	ffffffc050203616 <swapPage>
ffffffc0502037f0:	6d08                	ld	a0,24(a0)
ffffffc0502037f2:	60a2                	ld	ra,8(sp)
ffffffc0502037f4:	57fd                	li	a5,-1
ffffffc0502037f6:	ec08                	sd	a0,24(s0)
ffffffc0502037f8:	6402                	ld	s0,0(sp)
ffffffc0502037fa:	179a                	slli	a5,a5,0x26
ffffffc0502037fc:	953e                	add	a0,a0,a5
ffffffc0502037fe:	0141                	addi	sp,sp,16
ffffffc050203800:	8082                	ret
ffffffc050203802:	00002517          	auipc	a0,0x2
ffffffc050203806:	bde50513          	addi	a0,a0,-1058 # ffffffc0502053e0 <strcat+0x480>
ffffffc05020380a:	56e010ef          	jal	ffffffc050204d78 <printk>
ffffffc05020380e:	0c700693          	li	a3,199
ffffffc050203812:	00002617          	auipc	a2,0x2
ffffffc050203816:	b7660613          	addi	a2,a2,-1162 # ffffffc050205388 <strcat+0x428>
ffffffc05020381a:	00002597          	auipc	a1,0x2
ffffffc05020381e:	de658593          	addi	a1,a1,-538 # ffffffc050205600 <__FUNCTION__.0>
ffffffc050203822:	00002517          	auipc	a0,0x2
ffffffc050203826:	9d650513          	addi	a0,a0,-1578 # ffffffc0502051f8 <strcat+0x298>
ffffffc05020382a:	54e010ef          	jal	ffffffc050204d78 <printk>
ffffffc05020382e:	a001                	j	ffffffc05020382e <uva_allocPage+0x13c>

ffffffc050203830 <alloc_page_helper>:
ffffffc050203830:	01951713          	slli	a4,a0,0x19
ffffffc050203834:	03775793          	srli	a5,a4,0x37
ffffffc050203838:	078e                	slli	a5,a5,0x3
ffffffc05020383a:	95be                	add	a1,a1,a5
ffffffc05020383c:	619c                	ld	a5,0(a1)
ffffffc05020383e:	7179                	addi	sp,sp,-48
ffffffc050203840:	02e75613          	srli	a2,a4,0x2e
ffffffc050203844:	f406                	sd	ra,40(sp)
ffffffc050203846:	9315                	srli	a4,a4,0x25
ffffffc050203848:	882a                	mv	a6,a0
ffffffc05020384a:	1ff67613          	andi	a2,a2,511
ffffffc05020384e:	1ff77893          	andi	a7,a4,511
ffffffc050203852:	c3a1                	beqz	a5,ffffffc050203892 <alloc_page_helper+0x62>
ffffffc050203854:	00a7d693          	srli	a3,a5,0xa
ffffffc050203858:	57fd                	li	a5,-1
ffffffc05020385a:	179a                	slli	a5,a5,0x26
ffffffc05020385c:	06b2                	slli	a3,a3,0xc
ffffffc05020385e:	96be                	add	a3,a3,a5
ffffffc050203860:	060e                	slli	a2,a2,0x3
ffffffc050203862:	96b2                	add	a3,a3,a2
ffffffc050203864:	629c                	ld	a5,0(a3)
ffffffc050203866:	c7c5                	beqz	a5,ffffffc05020390e <alloc_page_helper+0xde>
ffffffc050203868:	83a9                	srli	a5,a5,0xa
ffffffc05020386a:	577d                	li	a4,-1
ffffffc05020386c:	171a                	slli	a4,a4,0x26
ffffffc05020386e:	07b2                	slli	a5,a5,0xc
ffffffc050203870:	97ba                	add	a5,a5,a4
ffffffc050203872:	088e                	slli	a7,a7,0x3
ffffffc050203874:	97c6                	add	a5,a5,a7
ffffffc050203876:	6398                	ld	a4,0(a5)
ffffffc050203878:	c735                	beqz	a4,ffffffc0502038e4 <alloc_page_helper+0xb4>
ffffffc05020387a:	70a2                	ld	ra,40(sp)
ffffffc05020387c:	0df76713          	ori	a4,a4,223
ffffffc050203880:	00a75513          	srli	a0,a4,0xa
ffffffc050203884:	56fd                	li	a3,-1
ffffffc050203886:	0532                	slli	a0,a0,0xc
ffffffc050203888:	169a                	slli	a3,a3,0x26
ffffffc05020388a:	e398                	sd	a4,0(a5)
ffffffc05020388c:	9536                	add	a0,a0,a3
ffffffc05020388e:	6145                	addi	sp,sp,48
ffffffc050203890:	8082                	ret
ffffffc050203892:	ec2a                	sd	a0,24(sp)
ffffffc050203894:	4505                	li	a0,1
ffffffc050203896:	e846                	sd	a7,16(sp)
ffffffc050203898:	e432                	sd	a2,8(sp)
ffffffc05020389a:	e02e                	sd	a1,0(sp)
ffffffc05020389c:	a11ff0ef          	jal	ffffffc0502032ac <allocPage>
ffffffc0502038a0:	6582                	ld	a1,0(sp)
ffffffc0502038a2:	4785                	li	a5,1
ffffffc0502038a4:	179a                	slli	a5,a5,0x26
ffffffc0502038a6:	6198                	ld	a4,0(a1)
ffffffc0502038a8:	00f506b3          	add	a3,a0,a5
ffffffc0502038ac:	82b1                	srli	a3,a3,0xc
ffffffc0502038ae:	3ff77713          	andi	a4,a4,1023
ffffffc0502038b2:	06aa                	slli	a3,a3,0xa
ffffffc0502038b4:	8ed9                	or	a3,a3,a4
ffffffc0502038b6:	0116e693          	ori	a3,a3,17
ffffffc0502038ba:	fc000537          	lui	a0,0xfc000
ffffffc0502038be:	00a6d713          	srli	a4,a3,0xa
ffffffc0502038c2:	0505                	addi	a0,a0,1 # fffffffffc000001 <__BSS_END__+0x3fabde17c9>
ffffffc0502038c4:	6862                	ld	a6,24(sp)
ffffffc0502038c6:	68c2                	ld	a7,16(sp)
ffffffc0502038c8:	6622                	ld	a2,8(sp)
ffffffc0502038ca:	0732                	slli	a4,a4,0xc
ffffffc0502038cc:	0532                	slli	a0,a0,0xc
ffffffc0502038ce:	40f707b3          	sub	a5,a4,a5
ffffffc0502038d2:	e194                	sd	a3,0(a1)
ffffffc0502038d4:	972a                	add	a4,a4,a0
ffffffc0502038d6:	0007b023          	sd	zero,0(a5)
ffffffc0502038da:	07a1                	addi	a5,a5,8
ffffffc0502038dc:	fef71de3          	bne	a4,a5,ffffffc0502038d6 <alloc_page_helper+0xa6>
ffffffc0502038e0:	619c                	ld	a5,0(a1)
ffffffc0502038e2:	bf8d                	j	ffffffc050203854 <alloc_page_helper+0x24>
ffffffc0502038e4:	080005b7          	lui	a1,0x8000
ffffffc0502038e8:	15fd                	addi	a1,a1,-1 # 7ffffff <per_cpu_stack_size+0x7ffefff>
ffffffc0502038ea:	05b2                	slli	a1,a1,0xc
ffffffc0502038ec:	00b875b3          	and	a1,a6,a1
ffffffc0502038f0:	4505                	li	a0,1
ffffffc0502038f2:	e03e                	sd	a5,0(sp)
ffffffc0502038f4:	dffff0ef          	jal	ffffffc0502036f2 <uva_allocPage>
ffffffc0502038f8:	6782                	ld	a5,0(sp)
ffffffc0502038fa:	4705                	li	a4,1
ffffffc0502038fc:	171a                	slli	a4,a4,0x26
ffffffc0502038fe:	6394                	ld	a3,0(a5)
ffffffc050203900:	972a                	add	a4,a4,a0
ffffffc050203902:	8331                	srli	a4,a4,0xc
ffffffc050203904:	072a                	slli	a4,a4,0xa
ffffffc050203906:	3ff6f693          	andi	a3,a3,1023
ffffffc05020390a:	8f55                	or	a4,a4,a3
ffffffc05020390c:	b7bd                	j	ffffffc05020387a <alloc_page_helper+0x4a>
ffffffc05020390e:	4505                	li	a0,1
ffffffc050203910:	e842                	sd	a6,16(sp)
ffffffc050203912:	e446                	sd	a7,8(sp)
ffffffc050203914:	e036                	sd	a3,0(sp)
ffffffc050203916:	997ff0ef          	jal	ffffffc0502032ac <allocPage>
ffffffc05020391a:	6682                	ld	a3,0(sp)
ffffffc05020391c:	4785                	li	a5,1
ffffffc05020391e:	179a                	slli	a5,a5,0x26
ffffffc050203920:	6298                	ld	a4,0(a3)
ffffffc050203922:	00f50633          	add	a2,a0,a5
ffffffc050203926:	8231                	srli	a2,a2,0xc
ffffffc050203928:	3ff77713          	andi	a4,a4,1023
ffffffc05020392c:	062a                	slli	a2,a2,0xa
ffffffc05020392e:	8e59                	or	a2,a2,a4
ffffffc050203930:	01166613          	ori	a2,a2,17
ffffffc050203934:	fc0005b7          	lui	a1,0xfc000
ffffffc050203938:	00a65713          	srli	a4,a2,0xa
ffffffc05020393c:	0585                	addi	a1,a1,1 # fffffffffc000001 <__BSS_END__+0x3fabde17c9>
ffffffc05020393e:	6842                	ld	a6,16(sp)
ffffffc050203940:	68a2                	ld	a7,8(sp)
ffffffc050203942:	0732                	slli	a4,a4,0xc
ffffffc050203944:	05b2                	slli	a1,a1,0xc
ffffffc050203946:	40f707b3          	sub	a5,a4,a5
ffffffc05020394a:	e290                	sd	a2,0(a3)
ffffffc05020394c:	972e                	add	a4,a4,a1
ffffffc05020394e:	0007b023          	sd	zero,0(a5)
ffffffc050203952:	07a1                	addi	a5,a5,8
ffffffc050203954:	fef71de3          	bne	a4,a5,ffffffc05020394e <alloc_page_helper+0x11e>
ffffffc050203958:	629c                	ld	a5,0(a3)
ffffffc05020395a:	b739                	j	ffffffc050203868 <alloc_page_helper+0x38>

ffffffc05020395c <shm_page_get>:
ffffffc05020395c:	4501                	li	a0,0
ffffffc05020395e:	8082                	ret

ffffffc050203960 <shm_page_dt>:
ffffffc050203960:	8082                	ret

ffffffc050203962 <do_scheduler>:
ffffffc050203962:	1141                	addi	sp,sp,-16
ffffffc050203964:	e406                	sd	ra,8(sp)
ffffffc050203966:	e022                	sd	s0,0(sp)
ffffffc050203968:	f29fe0ef          	jal	ffffffc050202890 <get_current_cpu_id>
ffffffc05020396c:	842a                	mv	s0,a0
ffffffc05020396e:	615000ef          	jal	ffffffc050204782 <check_sleeping>
ffffffc050203972:	00019797          	auipc	a5,0x19
ffffffc050203976:	75678793          	addi	a5,a5,1878 # ffffffc05021d0c8 <pid0_pcb+0x70>
ffffffc05020397a:	00019817          	auipc	a6,0x19
ffffffc05020397e:	6de80813          	addi	a6,a6,1758 # ffffffc05021d058 <pid0_pcb>
ffffffc050203982:	40f207b3          	sub	a5,tp,a5
ffffffc050203986:	41020733          	sub	a4,tp,a6
ffffffc05020398a:	00f037b3          	snez	a5,a5
ffffffc05020398e:	00e03733          	snez	a4,a4
ffffffc050203992:	8ff9                	and	a5,a5,a4
ffffffc050203994:	8512                	mv	a0,tp
ffffffc050203996:	00003697          	auipc	a3,0x3
ffffffc05020399a:	d7a68693          	addi	a3,a3,-646 # ffffffc050206710 <ready_queue>
ffffffc05020399e:	c789                	beqz	a5,ffffffc0502039a8 <do_scheduler+0x46>
ffffffc0502039a0:	05022783          	lw	a5,80(tp) # 50 <per_cpu_stack_size-0xfb0>
ffffffc0502039a4:	17fd                	addi	a5,a5,-1
ffffffc0502039a6:	c7b1                	beqz	a5,ffffffc0502039f2 <do_scheduler+0x90>
ffffffc0502039a8:	629c                	ld	a5,0(a3)
ffffffc0502039aa:	02d78363          	beq	a5,a3,ffffffc0502039d0 <do_scheduler+0x6e>
ffffffc0502039ae:	4605                	li	a2,1
ffffffc0502039b0:	0086163b          	sllw	a2,a2,s0
ffffffc0502039b4:	a019                	j	ffffffc0502039ba <do_scheduler+0x58>
ffffffc0502039b6:	00d78d63          	beq	a5,a3,ffffffc0502039d0 <do_scheduler+0x6e>
ffffffc0502039ba:	47b8                	lw	a4,72(a5)
ffffffc0502039bc:	85be                	mv	a1,a5
ffffffc0502039be:	639c                	ld	a5,0(a5)
ffffffc0502039c0:	8f71                	and	a4,a4,a2
ffffffc0502039c2:	db75                	beqz	a4,ffffffc0502039b6 <do_scheduler+0x54>
ffffffc0502039c4:	6594                	ld	a3,8(a1)
ffffffc0502039c6:	fe058713          	addi	a4,a1,-32
ffffffc0502039ca:	e794                	sd	a3,8(a5)
ffffffc0502039cc:	e29c                	sd	a5,0(a3)
ffffffc0502039ce:	a039                	j	ffffffc0502039dc <do_scheduler+0x7a>
ffffffc0502039d0:	00341793          	slli	a5,s0,0x3
ffffffc0502039d4:	8f81                	sub	a5,a5,s0
ffffffc0502039d6:	0792                	slli	a5,a5,0x4
ffffffc0502039d8:	00f80733          	add	a4,a6,a5
ffffffc0502039dc:	d760                	sw	s0,108(a4)
ffffffc0502039de:	6402                	ld	s0,0(sp)
ffffffc0502039e0:	60a2                	ld	ra,8(sp)
ffffffc0502039e2:	823a                	mv	tp,a4
ffffffc0502039e4:	4785                	li	a5,1
ffffffc0502039e6:	04f22823          	sw	a5,80(tp) # 50 <per_cpu_stack_size-0xfb0>
ffffffc0502039ea:	8592                	mv	a1,tp
ffffffc0502039ec:	0141                	addi	sp,sp,16
ffffffc0502039ee:	d7bfe06f          	j	ffffffc050202768 <switch_to>
ffffffc0502039f2:	6698                	ld	a4,8(a3)
ffffffc0502039f4:	02020793          	addi	a5,tp,32 # 20 <per_cpu_stack_size-0xfe0>
ffffffc0502039f8:	4609                	li	a2,2
ffffffc0502039fa:	02d23023          	sd	a3,32(tp) # 20 <per_cpu_stack_size-0xfe0>
ffffffc0502039fe:	02e23423          	sd	a4,40(tp) # 28 <per_cpu_stack_size-0xfd8>
ffffffc050203a02:	04c22823          	sw	a2,80(tp) # 50 <per_cpu_stack_size-0xfb0>
ffffffc050203a06:	e69c                	sd	a5,8(a3)
ffffffc050203a08:	e31c                	sd	a5,0(a4)
ffffffc050203a0a:	bf79                	j	ffffffc0502039a8 <do_scheduler+0x46>

ffffffc050203a0c <do_sleep>:
ffffffc050203a0c:	1101                	addi	sp,sp,-32
ffffffc050203a0e:	ec06                	sd	ra,24(sp)
ffffffc050203a10:	e822                	sd	s0,16(sp)
ffffffc050203a12:	e426                	sd	s1,8(sp)
ffffffc050203a14:	04022823          	sw	zero,80(tp) # 50 <per_cpu_stack_size-0xfb0>
ffffffc050203a18:	84aa                	mv	s1,a0
ffffffc050203a1a:	50b000ef          	jal	ffffffc050204724 <get_ticks>
ffffffc050203a1e:	842a                	mv	s0,a0
ffffffc050203a20:	52d000ef          	jal	ffffffc05020474c <get_time_base>
ffffffc050203a24:	02049793          	slli	a5,s1,0x20
ffffffc050203a28:	9381                	srli	a5,a5,0x20
ffffffc050203a2a:	02a787b3          	mul	a5,a5,a0
ffffffc050203a2e:	00003717          	auipc	a4,0x3
ffffffc050203a32:	cfa73703          	ld	a4,-774(a4) # ffffffc050206728 <sleep_queue+0x8>
ffffffc050203a36:	00003617          	auipc	a2,0x3
ffffffc050203a3a:	cea60613          	addi	a2,a2,-790 # ffffffc050206720 <sleep_queue>
ffffffc050203a3e:	02020693          	addi	a3,tp,32 # 20 <per_cpu_stack_size-0xfe0>
ffffffc050203a42:	02c23023          	sd	a2,32(tp) # 20 <per_cpu_stack_size-0xfe0>
ffffffc050203a46:	60e2                	ld	ra,24(sp)
ffffffc050203a48:	64a2                	ld	s1,8(sp)
ffffffc050203a4a:	00003617          	auipc	a2,0x3
ffffffc050203a4e:	ccd63f23          	sd	a3,-802(a2) # ffffffc050206728 <sleep_queue+0x8>
ffffffc050203a52:	02e23423          	sd	a4,40(tp) # 28 <per_cpu_stack_size-0xfd8>
ffffffc050203a56:	00878533          	add	a0,a5,s0
ffffffc050203a5a:	6442                	ld	s0,16(sp)
ffffffc050203a5c:	06a23023          	sd	a0,96(tp) # 60 <per_cpu_stack_size-0xfa0>
ffffffc050203a60:	e314                	sd	a3,0(a4)
ffffffc050203a62:	6105                	addi	sp,sp,32
ffffffc050203a64:	bdfd                	j	ffffffc050203962 <do_scheduler>

ffffffc050203a66 <do_block>:
ffffffc050203a66:	659c                	ld	a5,8(a1)
ffffffc050203a68:	e588                	sd	a0,8(a1)
ffffffc050203a6a:	e10c                	sd	a1,0(a0)
ffffffc050203a6c:	e51c                	sd	a5,8(a0)
ffffffc050203a6e:	e388                	sd	a0,0(a5)
ffffffc050203a70:	04022823          	sw	zero,80(tp) # 50 <per_cpu_stack_size-0xfb0>
ffffffc050203a74:	8082                	ret

ffffffc050203a76 <do_unblock>:
ffffffc050203a76:	6514                	ld	a3,8(a0)
ffffffc050203a78:	6110                	ld	a2,0(a0)
ffffffc050203a7a:	00003797          	auipc	a5,0x3
ffffffc050203a7e:	c9678793          	addi	a5,a5,-874 # ffffffc050206710 <ready_queue>
ffffffc050203a82:	4589                	li	a1,2
ffffffc050203a84:	e614                	sd	a3,8(a2)
ffffffc050203a86:	6798                	ld	a4,8(a5)
ffffffc050203a88:	e290                	sd	a2,0(a3)
ffffffc050203a8a:	e788                	sd	a0,8(a5)
ffffffc050203a8c:	d90c                	sw	a1,48(a0)
ffffffc050203a8e:	e518                	sd	a4,8(a0)
ffffffc050203a90:	e11c                	sd	a5,0(a0)
ffffffc050203a92:	e308                	sd	a0,0(a4)
ffffffc050203a94:	8082                	ret

ffffffc050203a96 <do_exec>:
ffffffc050203a96:	7171                	addi	sp,sp,-176
ffffffc050203a98:	f122                	sd	s0,160(sp)
ffffffc050203a9a:	ed26                	sd	s1,152(sp)
ffffffc050203a9c:	e94a                	sd	s2,144(sp)
ffffffc050203a9e:	e54e                	sd	s3,136(sp)
ffffffc050203aa0:	f506                	sd	ra,168(sp)
ffffffc050203aa2:	e152                	sd	s4,128(sp)
ffffffc050203aa4:	fcd6                	sd	s5,120(sp)
ffffffc050203aa6:	f8da                	sd	s6,112(sp)
ffffffc050203aa8:	f4de                	sd	s7,104(sp)
ffffffc050203aaa:	f0e2                	sd	s8,96(sp)
ffffffc050203aac:	ece6                	sd	s9,88(sp)
ffffffc050203aae:	e8ea                	sd	s10,80(sp)
ffffffc050203ab0:	e4ee                	sd	s11,72(sp)
ffffffc050203ab2:	1900                	addi	s0,sp,176
ffffffc050203ab4:	f8b43023          	sd	a1,-128(s0)
ffffffc050203ab8:	84b2                	mv	s1,a2
ffffffc050203aba:	892a                	mv	s2,a0
ffffffc050203abc:	00019797          	auipc	a5,0x19
ffffffc050203ac0:	6bc78793          	addi	a5,a5,1724 # ffffffc05021d178 <pcb+0x40>
ffffffc050203ac4:	4981                	li	s3,0
ffffffc050203ac6:	468d                	li	a3,3
ffffffc050203ac8:	567d                	li	a2,-1
ffffffc050203aca:	45c1                	li	a1,16
ffffffc050203acc:	4b98                	lw	a4,16(a5)
ffffffc050203ace:	02d70263          	beq	a4,a3,ffffffc050203af2 <do_exec+0x5c>
ffffffc050203ad2:	4398                	lw	a4,0(a5)
ffffffc050203ad4:	07078793          	addi	a5,a5,112
ffffffc050203ad8:	00c70d63          	beq	a4,a2,ffffffc050203af2 <do_exec+0x5c>
ffffffc050203adc:	2985                	addiw	s3,s3,1
ffffffc050203ade:	feb997e3          	bne	s3,a1,ffffffc050203acc <do_exec+0x36>
ffffffc050203ae2:	00002517          	auipc	a0,0x2
ffffffc050203ae6:	92650513          	addi	a0,a0,-1754 # ffffffc050205408 <strcat+0x4a8>
ffffffc050203aea:	28e010ef          	jal	ffffffc050204d78 <printk>
ffffffc050203aee:	557d                	li	a0,-1
ffffffc050203af0:	a2d9                	j	ffffffc050203cb6 <do_exec+0x220>
ffffffc050203af2:	854a                	mv	a0,s2
ffffffc050203af4:	bd4ff0ef          	jal	ffffffc050202ec8 <load_task_img>
ffffffc050203af8:	f6a43c23          	sd	a0,-136(s0)
ffffffc050203afc:	1e050663          	beqz	a0,ffffffc050203ce8 <do_exec+0x252>
ffffffc050203b00:	00399793          	slli	a5,s3,0x3
ffffffc050203b04:	4505                	li	a0,1
ffffffc050203b06:	41378c33          	sub	s8,a5,s3
ffffffc050203b0a:	f8f43423          	sd	a5,-120(s0)
ffffffc050203b0e:	f9eff0ef          	jal	ffffffc0502032ac <allocPage>
ffffffc050203b12:	00019797          	auipc	a5,0x19
ffffffc050203b16:	54678793          	addi	a5,a5,1350 # ffffffc05021d058 <pid0_pcb>
ffffffc050203b1a:	0c12                	slli	s8,s8,0x4
ffffffc050203b1c:	01878933          	add	s2,a5,s8
ffffffc050203b20:	0ea93823          	sd	a0,240(s2) # fffffffffffff0f0 <__BSS_END__+0x3fafde08b8>
ffffffc050203b24:	4505                	li	a0,1
ffffffc050203b26:	f86ff0ef          	jal	ffffffc0502032ac <allocPage>
ffffffc050203b2a:	f8043683          	ld	a3,-128(s0)
ffffffc050203b2e:	0f093703          	ld	a4,240(s2)
ffffffc050203b32:	6785                	lui	a5,0x1
ffffffc050203b34:	00369d13          	slli	s10,a3,0x3
ffffffc050203b38:	973e                	add	a4,a4,a5
ffffffc050203b3a:	0ea93c23          	sd	a0,248(s2)
ffffffc050203b3e:	00f50933          	add	s2,a0,a5
ffffffc050203b42:	008d0793          	addi	a5,s10,8
ffffffc050203b46:	00019c97          	auipc	s9,0x19
ffffffc050203b4a:	5f2c8c93          	addi	s9,s9,1522 # ffffffc05021d138 <pcb>
ffffffc050203b4e:	f6e43823          	sd	a4,-144(s0)
ffffffc050203b52:	f6f43423          	sd	a5,-152(s0)
ffffffc050203b56:	018c8db3          	add	s11,s9,s8
ffffffc050203b5a:	16d05f63          	blez	a3,ffffffc050203cd8 <do_exec+0x242>
ffffffc050203b5e:	01a48ab3          	add	s5,s1,s10
ffffffc050203b62:	8a26                	mv	s4,s1
ffffffc050203b64:	4b01                	li	s6,0
ffffffc050203b66:	000a3503          	ld	a0,0(s4)
ffffffc050203b6a:	0a21                	addi	s4,s4,8
ffffffc050203b6c:	30a010ef          	jal	ffffffc050204e76 <strlen>
ffffffc050203b70:	2505                	addiw	a0,a0,1
ffffffc050203b72:	01650b3b          	addw	s6,a0,s6
ffffffc050203b76:	ff5a18e3          	bne	s4,s5,ffffffc050203b66 <do_exec+0xd0>
ffffffc050203b7a:	00fd0793          	addi	a5,s10,15
ffffffc050203b7e:	9bc1                	andi	a5,a5,-16
ffffffc050203b80:	40f10133          	sub	sp,sp,a5
ffffffc050203b84:	f8843783          	ld	a5,-120(s0)
ffffffc050203b88:	41690933          	sub	s2,s2,s6
ffffffc050203b8c:	00f00bb7          	lui	s7,0xf00
ffffffc050203b90:	41378b33          	sub	s6,a5,s3
ffffffc050203b94:	ff897913          	andi	s2,s2,-8
ffffffc050203b98:	0b12                	slli	s6,s6,0x4
ffffffc050203b9a:	00019797          	auipc	a5,0x19
ffffffc050203b9e:	4be78793          	addi	a5,a5,1214 # ffffffc05021d058 <pid0_pcb>
ffffffc050203ba2:	0bbd                	addi	s7,s7,15 # f0000f <per_cpu_stack_size+0xeff00f>
ffffffc050203ba4:	f7243023          	sd	s2,-160(s0)
ffffffc050203ba8:	8a0a                	mv	s4,sp
ffffffc050203baa:	f4243c23          	sd	sp,-168(s0)
ffffffc050203bae:	9b3e                	add	s6,s6,a5
ffffffc050203bb0:	0bb2                	slli	s7,s7,0xc
ffffffc050203bb2:	608c                	ld	a1,0(s1)
ffffffc050203bb4:	854a                	mv	a0,s2
ffffffc050203bb6:	04a1                	addi	s1,s1,8
ffffffc050203bb8:	342010ef          	jal	ffffffc050204efa <strcpy>
ffffffc050203bbc:	0f8b3783          	ld	a5,248(s6)
ffffffc050203bc0:	ff84b503          	ld	a0,-8(s1)
ffffffc050203bc4:	0a21                	addi	s4,s4,8
ffffffc050203bc6:	40fb87b3          	sub	a5,s7,a5
ffffffc050203bca:	97ca                	add	a5,a5,s2
ffffffc050203bcc:	fefa3c23          	sd	a5,-8(s4)
ffffffc050203bd0:	2a6010ef          	jal	ffffffc050204e76 <strlen>
ffffffc050203bd4:	2505                	addiw	a0,a0,1
ffffffc050203bd6:	992a                	add	s2,s2,a0
ffffffc050203bd8:	fc9a9de3          	bne	s5,s1,ffffffc050203bb2 <do_exec+0x11c>
ffffffc050203bdc:	f6043783          	ld	a5,-160(s0)
ffffffc050203be0:	f6843703          	ld	a4,-152(s0)
ffffffc050203be4:	40e785b3          	sub	a1,a5,a4
ffffffc050203be8:	f5843783          	ld	a5,-168(s0)
ffffffc050203bec:	f805f593          	andi	a1,a1,-128
ffffffc050203bf0:	873e                	mv	a4,a5
ffffffc050203bf2:	40e58533          	sub	a0,a1,a4
ffffffc050203bf6:	97ea                	add	a5,a5,s10
ffffffc050203bf8:	6310                	ld	a2,0(a4)
ffffffc050203bfa:	00e506b3          	add	a3,a0,a4
ffffffc050203bfe:	0721                	addi	a4,a4,8
ffffffc050203c00:	e290                	sd	a2,0(a3)
ffffffc050203c02:	fee79be3          	bne	a5,a4,ffffffc050203bf8 <do_exec+0x162>
ffffffc050203c06:	f8843783          	ld	a5,-120(s0)
ffffffc050203c0a:	00019717          	auipc	a4,0x19
ffffffc050203c0e:	44e70713          	addi	a4,a4,1102 # ffffffc05021d058 <pid0_pcb>
ffffffc050203c12:	413787b3          	sub	a5,a5,s3
ffffffc050203c16:	0792                	slli	a5,a5,0x4
ffffffc050203c18:	97ba                	add	a5,a5,a4
ffffffc050203c1a:	7fe8                	ld	a0,248(a5)
ffffffc050203c1c:	f8843783          	ld	a5,-120(s0)
ffffffc050203c20:	00003697          	auipc	a3,0x3
ffffffc050203c24:	b486a683          	lw	a3,-1208(a3) # ffffffc050206768 <process_id>
ffffffc050203c28:	9d2e                	add	s10,s10,a1
ffffffc050203c2a:	41378733          	sub	a4,a5,s3
ffffffc050203c2e:	0712                	slli	a4,a4,0x4
ffffffc050203c30:	00019797          	auipc	a5,0x19
ffffffc050203c34:	42878793          	addi	a5,a5,1064 # ffffffc05021d058 <pid0_pcb>
ffffffc050203c38:	000d3023          	sd	zero,0(s10)
ffffffc050203c3c:	00e784b3          	add	s1,a5,a4
ffffffc050203c40:	12d4a023          	sw	a3,288(s1)
ffffffc050203c44:	04022803          	lw	a6,64(tp) # 40 <per_cpu_stack_size-0xfc0>
ffffffc050203c48:	00f007b7          	lui	a5,0xf00
ffffffc050203c4c:	07bd                	addi	a5,a5,15 # f0000f <per_cpu_stack_size+0xeff00f>
ffffffc050203c4e:	4609                	li	a2,2
ffffffc050203c50:	07b2                	slli	a5,a5,0xc
ffffffc050203c52:	1304a223          	sw	a6,292(s1)
ffffffc050203c56:	12c4a823          	sw	a2,304(s1)
ffffffc050203c5a:	9766                	add	a4,a4,s9
ffffffc050203c5c:	97ae                	add	a5,a5,a1
ffffffc050203c5e:	04073c23          	sd	zero,88(a4)
ffffffc050203c62:	8f89                	sub	a5,a5,a0
ffffffc050203c64:	f8043703          	ld	a4,-128(s0)
ffffffc050203c68:	f7043503          	ld	a0,-144(s0)
ffffffc050203c6c:	030c0893          	addi	a7,s8,48
ffffffc050203c70:	f7843603          	ld	a2,-136(s0)
ffffffc050203c74:	98e6                	add	a7,a7,s9
ffffffc050203c76:	0016881b          	addiw	a6,a3,1
ffffffc050203c7a:	85be                	mv	a1,a5
ffffffc050203c7c:	031db823          	sd	a7,48(s11)
ffffffc050203c80:	031dbc23          	sd	a7,56(s11)
ffffffc050203c84:	86ee                	mv	a3,s11
ffffffc050203c86:	00003897          	auipc	a7,0x3
ffffffc050203c8a:	af08a123          	sw	a6,-1310(a7) # ffffffc050206768 <process_id>
ffffffc050203c8e:	c49fe0ef          	jal	ffffffc0502028d6 <init_pcb_stack>
ffffffc050203c92:	00003797          	auipc	a5,0x3
ffffffc050203c96:	a7e78793          	addi	a5,a5,-1410 # ffffffc050206710 <ready_queue>
ffffffc050203c9a:	6798                	ld	a4,8(a5)
ffffffc050203c9c:	020c0c13          	addi	s8,s8,32
ffffffc050203ca0:	9ce2                	add	s9,s9,s8
ffffffc050203ca2:	1204a503          	lw	a0,288(s1)
ffffffc050203ca6:	0197b423          	sd	s9,8(a5)
ffffffc050203caa:	02fdb023          	sd	a5,32(s11)
ffffffc050203cae:	02edb423          	sd	a4,40(s11)
ffffffc050203cb2:	01973023          	sd	s9,0(a4)
ffffffc050203cb6:	f5040113          	addi	sp,s0,-176
ffffffc050203cba:	70aa                	ld	ra,168(sp)
ffffffc050203cbc:	740a                	ld	s0,160(sp)
ffffffc050203cbe:	64ea                	ld	s1,152(sp)
ffffffc050203cc0:	694a                	ld	s2,144(sp)
ffffffc050203cc2:	69aa                	ld	s3,136(sp)
ffffffc050203cc4:	6a0a                	ld	s4,128(sp)
ffffffc050203cc6:	7ae6                	ld	s5,120(sp)
ffffffc050203cc8:	7b46                	ld	s6,112(sp)
ffffffc050203cca:	7ba6                	ld	s7,104(sp)
ffffffc050203ccc:	7c06                	ld	s8,96(sp)
ffffffc050203cce:	6ce6                	ld	s9,88(sp)
ffffffc050203cd0:	6d46                	ld	s10,80(sp)
ffffffc050203cd2:	6da6                	ld	s11,72(sp)
ffffffc050203cd4:	614d                	addi	sp,sp,176
ffffffc050203cd6:	8082                	ret
ffffffc050203cd8:	ff897593          	andi	a1,s2,-8
ffffffc050203cdc:	008d0793          	addi	a5,s10,8
ffffffc050203ce0:	8d9d                	sub	a1,a1,a5
ffffffc050203ce2:	f805f593          	andi	a1,a1,-128
ffffffc050203ce6:	bf1d                	j	ffffffc050203c1c <do_exec+0x186>
ffffffc050203ce8:	85ca                	mv	a1,s2
ffffffc050203cea:	00001517          	auipc	a0,0x1
ffffffc050203cee:	2b650513          	addi	a0,a0,694 # ffffffc050204fa0 <strcat+0x40>
ffffffc050203cf2:	086010ef          	jal	ffffffc050204d78 <printk>
ffffffc050203cf6:	557d                	li	a0,-1
ffffffc050203cf8:	bf7d                	j	ffffffc050203cb6 <do_exec+0x220>

ffffffc050203cfa <do_exit>:
ffffffc050203cfa:	03023783          	ld	a5,48(tp) # 30 <per_cpu_stack_size-0xfd0>
ffffffc050203cfe:	470d                	li	a4,3
ffffffc050203d00:	04e22823          	sw	a4,80(tp) # 50 <per_cpu_stack_size-0xfb0>
ffffffc050203d04:	03020813          	addi	a6,tp,48 # 30 <per_cpu_stack_size-0xfd0>
ffffffc050203d08:	8512                	mv	a0,tp
ffffffc050203d0a:	02f80563          	beq	a6,a5,ffffffc050203d34 <do_exit+0x3a>
ffffffc050203d0e:	00003717          	auipc	a4,0x3
ffffffc050203d12:	a0270713          	addi	a4,a4,-1534 # ffffffc050206710 <ready_queue>
ffffffc050203d16:	4889                	li	a7,2
ffffffc050203d18:	6790                	ld	a2,8(a5)
ffffffc050203d1a:	638c                	ld	a1,0(a5)
ffffffc050203d1c:	e590                	sd	a2,8(a1)
ffffffc050203d1e:	6714                	ld	a3,8(a4)
ffffffc050203d20:	e20c                	sd	a1,0(a2)
ffffffc050203d22:	e71c                	sd	a5,8(a4)
ffffffc050203d24:	0317a823          	sw	a7,48(a5)
ffffffc050203d28:	e794                	sd	a3,8(a5)
ffffffc050203d2a:	e398                	sd	a4,0(a5)
ffffffc050203d2c:	e29c                	sd	a5,0(a3)
ffffffc050203d2e:	791c                	ld	a5,48(a0)
ffffffc050203d30:	ff0794e3          	bne	a5,a6,ffffffc050203d18 <do_exit+0x1e>
ffffffc050203d34:	b13d                	j	ffffffc050203962 <do_scheduler>

ffffffc050203d36 <do_kill>:
ffffffc050203d36:	02a05063          	blez	a0,ffffffc050203d56 <do_kill+0x20>
ffffffc050203d3a:	00019797          	auipc	a5,0x19
ffffffc050203d3e:	43e78793          	addi	a5,a5,1086 # ffffffc05021d178 <pcb+0x40>
ffffffc050203d42:	4701                	li	a4,0
ffffffc050203d44:	4641                	li	a2,16
ffffffc050203d46:	4394                	lw	a3,0(a5)
ffffffc050203d48:	07078793          	addi	a5,a5,112
ffffffc050203d4c:	00a68863          	beq	a3,a0,ffffffc050203d5c <do_kill+0x26>
ffffffc050203d50:	2705                	addiw	a4,a4,1
ffffffc050203d52:	fec71ae3          	bne	a4,a2,ffffffc050203d46 <do_kill+0x10>
ffffffc050203d56:	4701                	li	a4,0
ffffffc050203d58:	853a                	mv	a0,a4
ffffffc050203d5a:	8082                	ret
ffffffc050203d5c:	00371793          	slli	a5,a4,0x3
ffffffc050203d60:	8f99                	sub	a5,a5,a4
ffffffc050203d62:	0792                	slli	a5,a5,0x4
ffffffc050203d64:	00019817          	auipc	a6,0x19
ffffffc050203d68:	2f480813          	addi	a6,a6,756 # ffffffc05021d058 <pid0_pcb>
ffffffc050203d6c:	983e                	add	a6,a6,a5
ffffffc050203d6e:	13082603          	lw	a2,304(a6)
ffffffc050203d72:	468d                	li	a3,3
ffffffc050203d74:	4701                	li	a4,0
ffffffc050203d76:	fed601e3          	beq	a2,a3,ffffffc050203d58 <do_kill+0x22>
ffffffc050203d7a:	00019717          	auipc	a4,0x19
ffffffc050203d7e:	3be70713          	addi	a4,a4,958 # ffffffc05021d138 <pcb>
ffffffc050203d82:	7179                	addi	sp,sp,-48
ffffffc050203d84:	00f708b3          	add	a7,a4,a5
ffffffc050203d88:	ec42                	sd	a6,24(sp)
ffffffc050203d8a:	e83e                	sd	a5,16(sp)
ffffffc050203d8c:	e446                	sd	a7,8(sp)
ffffffc050203d8e:	f406                	sd	ra,40(sp)
ffffffc050203d90:	c36ff0ef          	jal	ffffffc0502031c6 <check_and_release_locks>
ffffffc050203d94:	68a2                	ld	a7,8(sp)
ffffffc050203d96:	67c2                	ld	a5,16(sp)
ffffffc050203d98:	6862                	ld	a6,24(sp)
ffffffc050203d9a:	0308b603          	ld	a2,48(a7)
ffffffc050203d9e:	00019717          	auipc	a4,0x19
ffffffc050203da2:	39a70713          	addi	a4,a4,922 # ffffffc05021d138 <pcb>
ffffffc050203da6:	03078793          	addi	a5,a5,48
ffffffc050203daa:	468d                	li	a3,3
ffffffc050203dac:	13082e03          	lw	t3,304(a6)
ffffffc050203db0:	00f70533          	add	a0,a4,a5
ffffffc050203db4:	12d82823          	sw	a3,304(a6)
ffffffc050203db8:	00003717          	auipc	a4,0x3
ffffffc050203dbc:	95870713          	addi	a4,a4,-1704 # ffffffc050206710 <ready_queue>
ffffffc050203dc0:	4309                	li	t1,2
ffffffc050203dc2:	02c50363          	beq	a0,a2,ffffffc050203de8 <do_kill+0xb2>
ffffffc050203dc6:	11083783          	ld	a5,272(a6)
ffffffc050203dca:	6790                	ld	a2,8(a5)
ffffffc050203dcc:	638c                	ld	a1,0(a5)
ffffffc050203dce:	e590                	sd	a2,8(a1)
ffffffc050203dd0:	6714                	ld	a3,8(a4)
ffffffc050203dd2:	e20c                	sd	a1,0(a2)
ffffffc050203dd4:	e71c                	sd	a5,8(a4)
ffffffc050203dd6:	0267a823          	sw	t1,48(a5)
ffffffc050203dda:	e794                	sd	a3,8(a5)
ffffffc050203ddc:	e398                	sd	a4,0(a5)
ffffffc050203dde:	e29c                	sd	a5,0(a3)
ffffffc050203de0:	0308b783          	ld	a5,48(a7)
ffffffc050203de4:	fef511e3          	bne	a0,a5,ffffffc050203dc6 <do_kill+0x90>
ffffffc050203de8:	02488163          	beq	a7,tp,ffffffc050203e0a <do_kill+0xd4>
ffffffc050203dec:	ffde7e13          	andi	t3,t3,-3
ffffffc050203df0:	000e1863          	bnez	t3,ffffffc050203e00 <do_kill+0xca>
ffffffc050203df4:	0288b783          	ld	a5,40(a7)
ffffffc050203df8:	0208b703          	ld	a4,32(a7)
ffffffc050203dfc:	e71c                	sd	a5,8(a4)
ffffffc050203dfe:	e398                	sd	a4,0(a5)
ffffffc050203e00:	70a2                	ld	ra,40(sp)
ffffffc050203e02:	4705                	li	a4,1
ffffffc050203e04:	853a                	mv	a0,a4
ffffffc050203e06:	6145                	addi	sp,sp,48
ffffffc050203e08:	8082                	ret
ffffffc050203e0a:	b59ff0ef          	jal	ffffffc050203962 <do_scheduler>
ffffffc050203e0e:	bfcd                	j	ffffffc050203e00 <do_kill+0xca>

ffffffc050203e10 <do_waitpid>:
ffffffc050203e10:	00019717          	auipc	a4,0x19
ffffffc050203e14:	36870713          	addi	a4,a4,872 # ffffffc05021d178 <pcb+0x40>
ffffffc050203e18:	4781                	li	a5,0
ffffffc050203e1a:	4641                	li	a2,16
ffffffc050203e1c:	4314                	lw	a3,0(a4)
ffffffc050203e1e:	07070713          	addi	a4,a4,112
ffffffc050203e22:	00a68763          	beq	a3,a0,ffffffc050203e30 <do_waitpid+0x20>
ffffffc050203e26:	2785                	addiw	a5,a5,1
ffffffc050203e28:	fec79ae3          	bne	a5,a2,ffffffc050203e1c <do_waitpid+0xc>
ffffffc050203e2c:	557d                	li	a0,-1
ffffffc050203e2e:	8082                	ret
ffffffc050203e30:	00379693          	slli	a3,a5,0x3
ffffffc050203e34:	40f68733          	sub	a4,a3,a5
ffffffc050203e38:	0712                	slli	a4,a4,0x4
ffffffc050203e3a:	00019817          	auipc	a6,0x19
ffffffc050203e3e:	21e80813          	addi	a6,a6,542 # ffffffc05021d058 <pid0_pcb>
ffffffc050203e42:	00e80633          	add	a2,a6,a4
ffffffc050203e46:	12462883          	lw	a7,292(a2)
ffffffc050203e4a:	04022583          	lw	a1,64(tp) # 40 <per_cpu_stack_size-0xfc0>
ffffffc050203e4e:	fcb89fe3          	bne	a7,a1,ffffffc050203e2c <do_waitpid+0x1c>
ffffffc050203e52:	7179                	addi	sp,sp,-48
ffffffc050203e54:	f022                	sd	s0,32(sp)
ffffffc050203e56:	842a                	mv	s0,a0
ffffffc050203e58:	13062503          	lw	a0,304(a2)
ffffffc050203e5c:	f406                	sd	ra,40(sp)
ffffffc050203e5e:	458d                	li	a1,3
ffffffc050203e60:	0ab50663          	beq	a0,a1,ffffffc050203f0c <do_waitpid+0xfc>
ffffffc050203e64:	00019597          	auipc	a1,0x19
ffffffc050203e68:	2d458593          	addi	a1,a1,724 # ffffffc05021d138 <pcb>
ffffffc050203e6c:	00e58333          	add	t1,a1,a4
ffffffc050203e70:	03833503          	ld	a0,56(t1) # 1038 <per_cpu_stack_size+0x38>
ffffffc050203e74:	02020893          	addi	a7,tp,32 # 20 <per_cpu_stack_size-0xfe0>
ffffffc050203e78:	04022823          	sw	zero,80(tp) # 50 <per_cpu_stack_size-0xfb0>
ffffffc050203e7c:	03070713          	addi	a4,a4,48
ffffffc050203e80:	03133c23          	sd	a7,56(t1)
ffffffc050203e84:	95ba                	add	a1,a1,a4
ffffffc050203e86:	02a23423          	sd	a0,40(tp) # 28 <per_cpu_stack_size-0xfd8>
ffffffc050203e8a:	02b23023          	sd	a1,32(tp) # 20 <per_cpu_stack_size-0xfe0>
ffffffc050203e8e:	01153023          	sd	a7,0(a0)
ffffffc050203e92:	ec36                	sd	a3,24(sp)
ffffffc050203e94:	e832                	sd	a2,16(sp)
ffffffc050203e96:	e43e                	sd	a5,8(sp)
ffffffc050203e98:	acbff0ef          	jal	ffffffc050203962 <do_scheduler>
ffffffc050203e9c:	6642                	ld	a2,16(sp)
ffffffc050203e9e:	67a2                	ld	a5,8(sp)
ffffffc050203ea0:	66e2                	ld	a3,24(sp)
ffffffc050203ea2:	7a68                	ld	a0,240(a2)
ffffffc050203ea4:	00019817          	auipc	a6,0x19
ffffffc050203ea8:	1b480813          	addi	a6,a6,436 # ffffffc05021d058 <pid0_pcb>
ffffffc050203eac:	e515                	bnez	a0,ffffffc050203ed8 <do_waitpid+0xc8>
ffffffc050203eae:	40f68733          	sub	a4,a3,a5
ffffffc050203eb2:	0712                	slli	a4,a4,0x4
ffffffc050203eb4:	9742                	add	a4,a4,a6
ffffffc050203eb6:	7f68                	ld	a0,248(a4)
ffffffc050203eb8:	ed1d                	bnez	a0,ffffffc050203ef6 <do_waitpid+0xe6>
ffffffc050203eba:	40f687b3          	sub	a5,a3,a5
ffffffc050203ebe:	70a2                	ld	ra,40(sp)
ffffffc050203ec0:	0792                	slli	a5,a5,0x4
ffffffc050203ec2:	8522                	mv	a0,s0
ffffffc050203ec4:	7402                	ld	s0,32(sp)
ffffffc050203ec6:	983e                	add	a6,a6,a5
ffffffc050203ec8:	470d                	li	a4,3
ffffffc050203eca:	57fd                	li	a5,-1
ffffffc050203ecc:	12e82823          	sw	a4,304(a6)
ffffffc050203ed0:	12f82023          	sw	a5,288(a6)
ffffffc050203ed4:	6145                	addi	sp,sp,48
ffffffc050203ed6:	8082                	ret
ffffffc050203ed8:	e836                	sd	a3,16(sp)
ffffffc050203eda:	d74ff0ef          	jal	ffffffc05020344e <freePage>
ffffffc050203ede:	66c2                	ld	a3,16(sp)
ffffffc050203ee0:	67a2                	ld	a5,8(sp)
ffffffc050203ee2:	00019817          	auipc	a6,0x19
ffffffc050203ee6:	17680813          	addi	a6,a6,374 # ffffffc05021d058 <pid0_pcb>
ffffffc050203eea:	40f68733          	sub	a4,a3,a5
ffffffc050203eee:	0712                	slli	a4,a4,0x4
ffffffc050203ef0:	9742                	add	a4,a4,a6
ffffffc050203ef2:	7f68                	ld	a0,248(a4)
ffffffc050203ef4:	d179                	beqz	a0,ffffffc050203eba <do_waitpid+0xaa>
ffffffc050203ef6:	e836                	sd	a3,16(sp)
ffffffc050203ef8:	e43e                	sd	a5,8(sp)
ffffffc050203efa:	d54ff0ef          	jal	ffffffc05020344e <freePage>
ffffffc050203efe:	66c2                	ld	a3,16(sp)
ffffffc050203f00:	67a2                	ld	a5,8(sp)
ffffffc050203f02:	00019817          	auipc	a6,0x19
ffffffc050203f06:	15680813          	addi	a6,a6,342 # ffffffc05021d058 <pid0_pcb>
ffffffc050203f0a:	bf45                	j	ffffffc050203eba <do_waitpid+0xaa>
ffffffc050203f0c:	7a68                	ld	a0,240(a2)
ffffffc050203f0e:	e115                	bnez	a0,ffffffc050203f32 <do_waitpid+0x122>
ffffffc050203f10:	40f68733          	sub	a4,a3,a5
ffffffc050203f14:	0712                	slli	a4,a4,0x4
ffffffc050203f16:	9742                	add	a4,a4,a6
ffffffc050203f18:	7f68                	ld	a0,248(a4)
ffffffc050203f1a:	d145                	beqz	a0,ffffffc050203eba <do_waitpid+0xaa>
ffffffc050203f1c:	e836                	sd	a3,16(sp)
ffffffc050203f1e:	e43e                	sd	a5,8(sp)
ffffffc050203f20:	d2eff0ef          	jal	ffffffc05020344e <freePage>
ffffffc050203f24:	67a2                	ld	a5,8(sp)
ffffffc050203f26:	66c2                	ld	a3,16(sp)
ffffffc050203f28:	00019817          	auipc	a6,0x19
ffffffc050203f2c:	13080813          	addi	a6,a6,304 # ffffffc05021d058 <pid0_pcb>
ffffffc050203f30:	b769                	j	ffffffc050203eba <do_waitpid+0xaa>
ffffffc050203f32:	e836                	sd	a3,16(sp)
ffffffc050203f34:	e43e                	sd	a5,8(sp)
ffffffc050203f36:	d18ff0ef          	jal	ffffffc05020344e <freePage>
ffffffc050203f3a:	66c2                	ld	a3,16(sp)
ffffffc050203f3c:	67a2                	ld	a5,8(sp)
ffffffc050203f3e:	00019817          	auipc	a6,0x19
ffffffc050203f42:	11a80813          	addi	a6,a6,282 # ffffffc05021d058 <pid0_pcb>
ffffffc050203f46:	b7e9                	j	ffffffc050203f10 <do_waitpid+0x100>

ffffffc050203f48 <do_process_show>:
ffffffc050203f48:	7139                	addi	sp,sp,-64
ffffffc050203f4a:	00001517          	auipc	a0,0x1
ffffffc050203f4e:	4e650513          	addi	a0,a0,1254 # ffffffc050205430 <strcat+0x4d0>
ffffffc050203f52:	f822                	sd	s0,48(sp)
ffffffc050203f54:	f426                	sd	s1,40(sp)
ffffffc050203f56:	f04a                	sd	s2,32(sp)
ffffffc050203f58:	ec4e                	sd	s3,24(sp)
ffffffc050203f5a:	e852                	sd	s4,16(sp)
ffffffc050203f5c:	e456                	sd	s5,8(sp)
ffffffc050203f5e:	e05a                	sd	s6,0(sp)
ffffffc050203f60:	fc06                	sd	ra,56(sp)
ffffffc050203f62:	00019417          	auipc	s0,0x19
ffffffc050203f66:	21640413          	addi	s0,s0,534 # ffffffc05021d178 <pcb+0x40>
ffffffc050203f6a:	60f000ef          	jal	ffffffc050204d78 <printk>
ffffffc050203f6e:	4481                	li	s1,0
ffffffc050203f70:	59fd                	li	s3,-1
ffffffc050203f72:	4a0d                	li	s4,3
ffffffc050203f74:	4b09                	li	s6,2
ffffffc050203f76:	00001a97          	auipc	s5,0x1
ffffffc050203f7a:	69aa8a93          	addi	s5,s5,1690 # ffffffc050205610 <CSWTCH.50>
ffffffc050203f7e:	4941                	li	s2,16
ffffffc050203f80:	4010                	lw	a2,0(s0)
ffffffc050203f82:	85a6                	mv	a1,s1
ffffffc050203f84:	00001517          	auipc	a0,0x1
ffffffc050203f88:	4c450513          	addi	a0,a0,1220 # ffffffc050205448 <strcat+0x4e8>
ffffffc050203f8c:	03360563          	beq	a2,s3,ffffffc050203fb6 <do_process_show+0x6e>
ffffffc050203f90:	481c                	lw	a5,16(s0)
ffffffc050203f92:	00001697          	auipc	a3,0x1
ffffffc050203f96:	49668693          	addi	a3,a3,1174 # ffffffc050205428 <strcat+0x4c8>
ffffffc050203f9a:	01478e63          	beq	a5,s4,ffffffc050203fb6 <do_process_show+0x6e>
ffffffc050203f9e:	02079813          	slli	a6,a5,0x20
ffffffc050203fa2:	01d85713          	srli	a4,a6,0x1d
ffffffc050203fa6:	9756                	add	a4,a4,s5
ffffffc050203fa8:	00fb6363          	bltu	s6,a5,ffffffc050203fae <do_process_show+0x66>
ffffffc050203fac:	6314                	ld	a3,0(a4)
ffffffc050203fae:	545c                	lw	a5,44(s0)
ffffffc050203fb0:	5418                	lw	a4,40(s0)
ffffffc050203fb2:	5c7000ef          	jal	ffffffc050204d78 <printk>
ffffffc050203fb6:	2485                	addiw	s1,s1,1
ffffffc050203fb8:	07040413          	addi	s0,s0,112
ffffffc050203fbc:	fd2492e3          	bne	s1,s2,ffffffc050203f80 <do_process_show+0x38>
ffffffc050203fc0:	70e2                	ld	ra,56(sp)
ffffffc050203fc2:	7442                	ld	s0,48(sp)
ffffffc050203fc4:	74a2                	ld	s1,40(sp)
ffffffc050203fc6:	7902                	ld	s2,32(sp)
ffffffc050203fc8:	69e2                	ld	s3,24(sp)
ffffffc050203fca:	6a42                	ld	s4,16(sp)
ffffffc050203fcc:	6aa2                	ld	s5,8(sp)
ffffffc050203fce:	6b02                	ld	s6,0(sp)
ffffffc050203fd0:	6121                	addi	sp,sp,64
ffffffc050203fd2:	8082                	ret

ffffffc050203fd4 <do_getpid>:
ffffffc050203fd4:	04022503          	lw	a0,64(tp) # 40 <per_cpu_stack_size-0xfc0>
ffffffc050203fd8:	8082                	ret

ffffffc050203fda <init_barriers>:
ffffffc050203fda:	577d                	li	a4,-1
ffffffc050203fdc:	9301                	srli	a4,a4,0x20
ffffffc050203fde:	0001a797          	auipc	a5,0x1a
ffffffc050203fe2:	86a78793          	addi	a5,a5,-1942 # ffffffc05021d848 <barriers+0x10>
ffffffc050203fe6:	0001a697          	auipc	a3,0x1a
ffffffc050203fea:	a6268693          	addi	a3,a3,-1438 # ffffffc05021da48 <conditions+0x10>
ffffffc050203fee:	fee7b823          	sd	a4,-16(a5)
ffffffc050203ff2:	fe07ac23          	sw	zero,-8(a5)
ffffffc050203ff6:	e39c                	sd	a5,0(a5)
ffffffc050203ff8:	e79c                	sd	a5,8(a5)
ffffffc050203ffa:	02078793          	addi	a5,a5,32
ffffffc050203ffe:	fed798e3          	bne	a5,a3,ffffffc050203fee <init_barriers+0x14>
ffffffc050204002:	8082                	ret

ffffffc050204004 <do_barrier_init>:
ffffffc050204004:	0001a617          	auipc	a2,0x1a
ffffffc050204008:	83460613          	addi	a2,a2,-1996 # ffffffc05021d838 <barriers>
ffffffc05020400c:	88b2                	mv	a7,a2
ffffffc05020400e:	8732                	mv	a4,a2
ffffffc050204010:	4781                	li	a5,0
ffffffc050204012:	4841                	li	a6,16
ffffffc050204014:	4314                	lw	a3,0(a4)
ffffffc050204016:	02070713          	addi	a4,a4,32
ffffffc05020401a:	02a68163          	beq	a3,a0,ffffffc05020403c <do_barrier_init+0x38>
ffffffc05020401e:	2785                	addiw	a5,a5,1
ffffffc050204020:	ff079ae3          	bne	a5,a6,ffffffc050204014 <do_barrier_init+0x10>
ffffffc050204024:	4781                	li	a5,0
ffffffc050204026:	56fd                	li	a3,-1
ffffffc050204028:	4841                	li	a6,16
ffffffc05020402a:	4218                	lw	a4,0(a2)
ffffffc05020402c:	02060613          	addi	a2,a2,32
ffffffc050204030:	00d70863          	beq	a4,a3,ffffffc050204040 <do_barrier_init+0x3c>
ffffffc050204034:	2785                	addiw	a5,a5,1
ffffffc050204036:	ff079ae3          	bne	a5,a6,ffffffc05020402a <do_barrier_init+0x26>
ffffffc05020403a:	57fd                	li	a5,-1
ffffffc05020403c:	853e                	mv	a0,a5
ffffffc05020403e:	8082                	ret
ffffffc050204040:	00579693          	slli	a3,a5,0x5
ffffffc050204044:	01068613          	addi	a2,a3,16
ffffffc050204048:	00019717          	auipc	a4,0x19
ffffffc05020404c:	01070713          	addi	a4,a4,16 # ffffffc05021d058 <pid0_pcb>
ffffffc050204050:	9736                	add	a4,a4,a3
ffffffc050204052:	98b2                	add	a7,a7,a2
ffffffc050204054:	7ea72023          	sw	a0,2016(a4)
ffffffc050204058:	7f173823          	sd	a7,2032(a4)
ffffffc05020405c:	7f173c23          	sd	a7,2040(a4)
ffffffc050204060:	7eb72223          	sw	a1,2020(a4)
ffffffc050204064:	7e072423          	sw	zero,2024(a4)
ffffffc050204068:	853e                	mv	a0,a5
ffffffc05020406a:	8082                	ret

ffffffc05020406c <do_barrier_wait>:
ffffffc05020406c:	47bd                	li	a5,15
ffffffc05020406e:	06a7e163          	bltu	a5,a0,ffffffc0502040d0 <do_barrier_wait+0x64>
ffffffc050204072:	0516                	slli	a0,a0,0x5
ffffffc050204074:	00019817          	auipc	a6,0x19
ffffffc050204078:	fe480813          	addi	a6,a6,-28 # ffffffc05021d058 <pid0_pcb>
ffffffc05020407c:	982a                	add	a6,a6,a0
ffffffc05020407e:	7e882783          	lw	a5,2024(a6)
ffffffc050204082:	7e482703          	lw	a4,2020(a6)
ffffffc050204086:	00019697          	auipc	a3,0x19
ffffffc05020408a:	7c268693          	addi	a3,a3,1986 # ffffffc05021d848 <barriers+0x10>
ffffffc05020408e:	2785                	addiw	a5,a5,1
ffffffc050204090:	7ef82423          	sw	a5,2024(a6)
ffffffc050204094:	9536                	add	a0,a0,a3
ffffffc050204096:	02e7ce63          	blt	a5,a4,ffffffc0502040d2 <do_barrier_wait+0x66>
ffffffc05020409a:	7f083783          	ld	a5,2032(a6)
ffffffc05020409e:	7e082423          	sw	zero,2024(a6)
ffffffc0502040a2:	02a78763          	beq	a5,a0,ffffffc0502040d0 <do_barrier_wait+0x64>
ffffffc0502040a6:	00002717          	auipc	a4,0x2
ffffffc0502040aa:	66a70713          	addi	a4,a4,1642 # ffffffc050206710 <ready_queue>
ffffffc0502040ae:	4889                	li	a7,2
ffffffc0502040b0:	6790                	ld	a2,8(a5)
ffffffc0502040b2:	638c                	ld	a1,0(a5)
ffffffc0502040b4:	e590                	sd	a2,8(a1)
ffffffc0502040b6:	6714                	ld	a3,8(a4)
ffffffc0502040b8:	e20c                	sd	a1,0(a2)
ffffffc0502040ba:	e71c                	sd	a5,8(a4)
ffffffc0502040bc:	0317a823          	sw	a7,48(a5)
ffffffc0502040c0:	e794                	sd	a3,8(a5)
ffffffc0502040c2:	e398                	sd	a4,0(a5)
ffffffc0502040c4:	e29c                	sd	a5,0(a3)
ffffffc0502040c6:	7f083783          	ld	a5,2032(a6)
ffffffc0502040ca:	fea793e3          	bne	a5,a0,ffffffc0502040b0 <do_barrier_wait+0x44>
ffffffc0502040ce:	8082                	ret
ffffffc0502040d0:	8082                	ret
ffffffc0502040d2:	7f883783          	ld	a5,2040(a6)
ffffffc0502040d6:	02020713          	addi	a4,tp,32 # 20 <per_cpu_stack_size-0xfe0>
ffffffc0502040da:	7ee83c23          	sd	a4,2040(a6)
ffffffc0502040de:	02f23423          	sd	a5,40(tp) # 28 <per_cpu_stack_size-0xfd8>
ffffffc0502040e2:	02a23023          	sd	a0,32(tp) # 20 <per_cpu_stack_size-0xfe0>
ffffffc0502040e6:	e398                	sd	a4,0(a5)
ffffffc0502040e8:	04022823          	sw	zero,80(tp) # 50 <per_cpu_stack_size-0xfb0>
ffffffc0502040ec:	b89d                	j	ffffffc050203962 <do_scheduler>

ffffffc0502040ee <do_barrier_destroy>:
ffffffc0502040ee:	47bd                	li	a5,15
ffffffc0502040f0:	02a7e263          	bltu	a5,a0,ffffffc050204114 <do_barrier_destroy+0x26>
ffffffc0502040f4:	0516                	slli	a0,a0,0x5
ffffffc0502040f6:	00019717          	auipc	a4,0x19
ffffffc0502040fa:	74270713          	addi	a4,a4,1858 # ffffffc05021d838 <barriers>
ffffffc0502040fe:	56fd                	li	a3,-1
ffffffc050204100:	972a                	add	a4,a4,a0
ffffffc050204102:	9281                	srli	a3,a3,0x20
ffffffc050204104:	00019797          	auipc	a5,0x19
ffffffc050204108:	f5478793          	addi	a5,a5,-172 # ffffffc05021d058 <pid0_pcb>
ffffffc05020410c:	e314                	sd	a3,0(a4)
ffffffc05020410e:	97aa                	add	a5,a5,a0
ffffffc050204110:	7e07a423          	sw	zero,2024(a5)
ffffffc050204114:	8082                	ret

ffffffc050204116 <init_conditions>:
ffffffc050204116:	0001a797          	auipc	a5,0x1a
ffffffc05020411a:	92a78793          	addi	a5,a5,-1750 # ffffffc05021da40 <conditions+0x8>
ffffffc05020411e:	0001a697          	auipc	a3,0x1a
ffffffc050204122:	aa268693          	addi	a3,a3,-1374 # ffffffc05021dbc0 <mboxes+0x8>
ffffffc050204126:	577d                	li	a4,-1
ffffffc050204128:	fee7ac23          	sw	a4,-8(a5)
ffffffc05020412c:	e39c                	sd	a5,0(a5)
ffffffc05020412e:	e79c                	sd	a5,8(a5)
ffffffc050204130:	07e1                	addi	a5,a5,24
ffffffc050204132:	fed79be3          	bne	a5,a3,ffffffc050204128 <init_conditions+0x12>
ffffffc050204136:	8082                	ret

ffffffc050204138 <do_condition_init>:
ffffffc050204138:	0001a617          	auipc	a2,0x1a
ffffffc05020413c:	90060613          	addi	a2,a2,-1792 # ffffffc05021da38 <conditions>
ffffffc050204140:	8832                	mv	a6,a2
ffffffc050204142:	8732                	mv	a4,a2
ffffffc050204144:	4781                	li	a5,0
ffffffc050204146:	45c1                	li	a1,16
ffffffc050204148:	4314                	lw	a3,0(a4)
ffffffc05020414a:	0761                	addi	a4,a4,24
ffffffc05020414c:	02a68063          	beq	a3,a0,ffffffc05020416c <do_condition_init+0x34>
ffffffc050204150:	2785                	addiw	a5,a5,1
ffffffc050204152:	feb79be3          	bne	a5,a1,ffffffc050204148 <do_condition_init+0x10>
ffffffc050204156:	4781                	li	a5,0
ffffffc050204158:	56fd                	li	a3,-1
ffffffc05020415a:	45c1                	li	a1,16
ffffffc05020415c:	4218                	lw	a4,0(a2)
ffffffc05020415e:	0661                	addi	a2,a2,24
ffffffc050204160:	00d70863          	beq	a4,a3,ffffffc050204170 <do_condition_init+0x38>
ffffffc050204164:	2785                	addiw	a5,a5,1
ffffffc050204166:	feb79be3          	bne	a5,a1,ffffffc05020415c <do_condition_init+0x24>
ffffffc05020416a:	57fd                	li	a5,-1
ffffffc05020416c:	853e                	mv	a0,a5
ffffffc05020416e:	8082                	ret
ffffffc050204170:	00179713          	slli	a4,a5,0x1
ffffffc050204174:	973e                	add	a4,a4,a5
ffffffc050204176:	070e                	slli	a4,a4,0x3
ffffffc050204178:	00870613          	addi	a2,a4,8
ffffffc05020417c:	0001a697          	auipc	a3,0x1a
ffffffc050204180:	edc68693          	addi	a3,a3,-292 # ffffffc05021e058 <mboxes+0x4a0>
ffffffc050204184:	9736                	add	a4,a4,a3
ffffffc050204186:	9832                	add	a6,a6,a2
ffffffc050204188:	9ea72023          	sw	a0,-1568(a4)
ffffffc05020418c:	9f073423          	sd	a6,-1560(a4)
ffffffc050204190:	9f073823          	sd	a6,-1552(a4)
ffffffc050204194:	853e                	mv	a0,a5
ffffffc050204196:	8082                	ret

ffffffc050204198 <do_condition_wait>:
ffffffc050204198:	47bd                	li	a5,15
ffffffc05020419a:	00a7f363          	bgeu	a5,a0,ffffffc0502041a0 <do_condition_wait+0x8>
ffffffc05020419e:	8082                	ret
ffffffc0502041a0:	00151793          	slli	a5,a0,0x1
ffffffc0502041a4:	97aa                	add	a5,a5,a0
ffffffc0502041a6:	078e                	slli	a5,a5,0x3
ffffffc0502041a8:	0001a717          	auipc	a4,0x1a
ffffffc0502041ac:	eb070713          	addi	a4,a4,-336 # ffffffc05021e058 <mboxes+0x4a0>
ffffffc0502041b0:	973e                	add	a4,a4,a5
ffffffc0502041b2:	1101                	addi	sp,sp,-32
ffffffc0502041b4:	9f073683          	ld	a3,-1552(a4)
ffffffc0502041b8:	ec06                	sd	ra,24(sp)
ffffffc0502041ba:	02020613          	addi	a2,tp,32 # 20 <per_cpu_stack_size-0xfe0>
ffffffc0502041be:	0001a517          	auipc	a0,0x1a
ffffffc0502041c2:	88250513          	addi	a0,a0,-1918 # ffffffc05021da40 <conditions+0x8>
ffffffc0502041c6:	9ec73823          	sd	a2,-1552(a4)
ffffffc0502041ca:	97aa                	add	a5,a5,a0
ffffffc0502041cc:	02f23023          	sd	a5,32(tp) # 20 <per_cpu_stack_size-0xfe0>
ffffffc0502041d0:	02d23423          	sd	a3,40(tp) # 28 <per_cpu_stack_size-0xfd8>
ffffffc0502041d4:	e290                	sd	a2,0(a3)
ffffffc0502041d6:	852e                	mv	a0,a1
ffffffc0502041d8:	04022823          	sw	zero,80(tp) # 50 <per_cpu_stack_size-0xfb0>
ffffffc0502041dc:	e42e                	sd	a1,8(sp)
ffffffc0502041de:	f73fe0ef          	jal	ffffffc050203150 <do_mutex_lock_release>
ffffffc0502041e2:	f80ff0ef          	jal	ffffffc050203962 <do_scheduler>
ffffffc0502041e6:	6522                	ld	a0,8(sp)
ffffffc0502041e8:	60e2                	ld	ra,24(sp)
ffffffc0502041ea:	6105                	addi	sp,sp,32
ffffffc0502041ec:	ee7fe06f          	j	ffffffc0502030d2 <do_mutex_lock_acquire>

ffffffc0502041f0 <do_condition_signal>:
ffffffc0502041f0:	47bd                	li	a5,15
ffffffc0502041f2:	04a7e363          	bltu	a5,a0,ffffffc050204238 <do_condition_signal+0x48>
ffffffc0502041f6:	00151793          	slli	a5,a0,0x1
ffffffc0502041fa:	953e                	add	a0,a0,a5
ffffffc0502041fc:	050e                	slli	a0,a0,0x3
ffffffc0502041fe:	0001a797          	auipc	a5,0x1a
ffffffc050204202:	e5a78793          	addi	a5,a5,-422 # ffffffc05021e058 <mboxes+0x4a0>
ffffffc050204206:	97aa                	add	a5,a5,a0
ffffffc050204208:	9e87b783          	ld	a5,-1560(a5)
ffffffc05020420c:	0001a717          	auipc	a4,0x1a
ffffffc050204210:	83470713          	addi	a4,a4,-1996 # ffffffc05021da40 <conditions+0x8>
ffffffc050204214:	953a                	add	a0,a0,a4
ffffffc050204216:	02a78163          	beq	a5,a0,ffffffc050204238 <do_condition_signal+0x48>
ffffffc05020421a:	6790                	ld	a2,8(a5)
ffffffc05020421c:	638c                	ld	a1,0(a5)
ffffffc05020421e:	00002717          	auipc	a4,0x2
ffffffc050204222:	4f270713          	addi	a4,a4,1266 # ffffffc050206710 <ready_queue>
ffffffc050204226:	4509                	li	a0,2
ffffffc050204228:	e590                	sd	a2,8(a1)
ffffffc05020422a:	6714                	ld	a3,8(a4)
ffffffc05020422c:	e20c                	sd	a1,0(a2)
ffffffc05020422e:	e71c                	sd	a5,8(a4)
ffffffc050204230:	e794                	sd	a3,8(a5)
ffffffc050204232:	e398                	sd	a4,0(a5)
ffffffc050204234:	db88                	sw	a0,48(a5)
ffffffc050204236:	e29c                	sd	a5,0(a3)
ffffffc050204238:	8082                	ret

ffffffc05020423a <do_condition_broadcast>:
ffffffc05020423a:	47bd                	li	a5,15
ffffffc05020423c:	04a7e863          	bltu	a5,a0,ffffffc05020428c <do_condition_broadcast+0x52>
ffffffc050204240:	00151793          	slli	a5,a0,0x1
ffffffc050204244:	953e                	add	a0,a0,a5
ffffffc050204246:	050e                	slli	a0,a0,0x3
ffffffc050204248:	0001a817          	auipc	a6,0x1a
ffffffc05020424c:	e1080813          	addi	a6,a6,-496 # ffffffc05021e058 <mboxes+0x4a0>
ffffffc050204250:	982a                	add	a6,a6,a0
ffffffc050204252:	9e883783          	ld	a5,-1560(a6)
ffffffc050204256:	00019717          	auipc	a4,0x19
ffffffc05020425a:	7ea70713          	addi	a4,a4,2026 # ffffffc05021da40 <conditions+0x8>
ffffffc05020425e:	953a                	add	a0,a0,a4
ffffffc050204260:	02f50663          	beq	a0,a5,ffffffc05020428c <do_condition_broadcast+0x52>
ffffffc050204264:	00002717          	auipc	a4,0x2
ffffffc050204268:	4ac70713          	addi	a4,a4,1196 # ffffffc050206710 <ready_queue>
ffffffc05020426c:	4889                	li	a7,2
ffffffc05020426e:	6790                	ld	a2,8(a5)
ffffffc050204270:	638c                	ld	a1,0(a5)
ffffffc050204272:	e590                	sd	a2,8(a1)
ffffffc050204274:	6714                	ld	a3,8(a4)
ffffffc050204276:	e20c                	sd	a1,0(a2)
ffffffc050204278:	e71c                	sd	a5,8(a4)
ffffffc05020427a:	0317a823          	sw	a7,48(a5)
ffffffc05020427e:	e794                	sd	a3,8(a5)
ffffffc050204280:	e398                	sd	a4,0(a5)
ffffffc050204282:	e29c                	sd	a5,0(a3)
ffffffc050204284:	9e883783          	ld	a5,-1560(a6)
ffffffc050204288:	fea793e3          	bne	a5,a0,ffffffc05020426e <do_condition_broadcast+0x34>
ffffffc05020428c:	8082                	ret

ffffffc05020428e <do_condition_destroy>:
ffffffc05020428e:	47bd                	li	a5,15
ffffffc050204290:	00a7ee63          	bltu	a5,a0,ffffffc0502042ac <do_condition_destroy+0x1e>
ffffffc050204294:	00151793          	slli	a5,a0,0x1
ffffffc050204298:	97aa                	add	a5,a5,a0
ffffffc05020429a:	0001a717          	auipc	a4,0x1a
ffffffc05020429e:	dbe70713          	addi	a4,a4,-578 # ffffffc05021e058 <mboxes+0x4a0>
ffffffc0502042a2:	078e                	slli	a5,a5,0x3
ffffffc0502042a4:	97ba                	add	a5,a5,a4
ffffffc0502042a6:	577d                	li	a4,-1
ffffffc0502042a8:	9ee7a023          	sw	a4,-1568(a5)
ffffffc0502042ac:	8082                	ret

ffffffc0502042ae <init_mbox>:
ffffffc0502042ae:	1101                	addi	sp,sp,-32
ffffffc0502042b0:	e822                	sd	s0,16(sp)
ffffffc0502042b2:	e426                	sd	s1,8(sp)
ffffffc0502042b4:	ec06                	sd	ra,24(sp)
ffffffc0502042b6:	0001a417          	auipc	s0,0x1a
ffffffc0502042ba:	97a40413          	addi	s0,s0,-1670 # ffffffc05021dc30 <mboxes+0x78>
ffffffc0502042be:	0001a497          	auipc	s1,0x1a
ffffffc0502042c2:	2f248493          	addi	s1,s1,754 # ffffffc05021e5b0 <syscall+0x78>
ffffffc0502042c6:	ff840513          	addi	a0,s0,-8
ffffffc0502042ca:	f8040423          	sb	zero,-120(s0)
ffffffc0502042ce:	fe043423          	sd	zero,-24(s0)
ffffffc0502042d2:	fe043823          	sd	zero,-16(s0)
ffffffc0502042d6:	d69fe0ef          	jal	ffffffc05020303e <spin_lock_init>
ffffffc0502042da:	01040793          	addi	a5,s0,16
ffffffc0502042de:	e000                	sd	s0,0(s0)
ffffffc0502042e0:	e400                	sd	s0,8(s0)
ffffffc0502042e2:	e81c                	sd	a5,16(s0)
ffffffc0502042e4:	ec1c                	sd	a5,24(s0)
ffffffc0502042e6:	09840413          	addi	s0,s0,152
ffffffc0502042ea:	fc941ee3          	bne	s0,s1,ffffffc0502042c6 <init_mbox+0x18>
ffffffc0502042ee:	60e2                	ld	ra,24(sp)
ffffffc0502042f0:	6442                	ld	s0,16(sp)
ffffffc0502042f2:	64a2                	ld	s1,8(sp)
ffffffc0502042f4:	6105                	addi	sp,sp,32
ffffffc0502042f6:	8082                	ret

ffffffc0502042f8 <do_mbox_open>:
ffffffc0502042f8:	7139                	addi	sp,sp,-64
ffffffc0502042fa:	e456                	sd	s5,8(sp)
ffffffc0502042fc:	0001aa97          	auipc	s5,0x1a
ffffffc050204300:	8bca8a93          	addi	s5,s5,-1860 # ffffffc05021dbb8 <mboxes>
ffffffc050204304:	f822                	sd	s0,48(sp)
ffffffc050204306:	f426                	sd	s1,40(sp)
ffffffc050204308:	f04a                	sd	s2,32(sp)
ffffffc05020430a:	ec4e                	sd	s3,24(sp)
ffffffc05020430c:	e852                	sd	s4,16(sp)
ffffffc05020430e:	fc06                	sd	ra,56(sp)
ffffffc050204310:	89aa                	mv	s3,a0
ffffffc050204312:	84d6                	mv	s1,s5
ffffffc050204314:	4901                	li	s2,0
ffffffc050204316:	4401                	li	s0,0
ffffffc050204318:	4a41                	li	s4,16
ffffffc05020431a:	a801                	j	ffffffc05020432a <do_mbox_open+0x32>
ffffffc05020431c:	2405                	addiw	s0,s0,1
ffffffc05020431e:	09848493          	addi	s1,s1,152
ffffffc050204322:	09890913          	addi	s2,s2,152
ffffffc050204326:	03440d63          	beq	s0,s4,ffffffc050204360 <do_mbox_open+0x68>
ffffffc05020432a:	54fc                	lw	a5,108(s1)
ffffffc05020432c:	85ce                	mv	a1,s3
ffffffc05020432e:	8526                	mv	a0,s1
ffffffc050204330:	fef056e3          	blez	a5,ffffffc05020431c <do_mbox_open+0x24>
ffffffc050204334:	361000ef          	jal	ffffffc050204e94 <strcmp>
ffffffc050204338:	f175                	bnez	a0,ffffffc05020431c <do_mbox_open+0x24>
ffffffc05020433a:	07090913          	addi	s2,s2,112
ffffffc05020433e:	012a8533          	add	a0,s5,s2
ffffffc050204342:	d11fe0ef          	jal	ffffffc050203052 <spin_lock_acquire>
ffffffc050204346:	09800793          	li	a5,152
ffffffc05020434a:	02f407b3          	mul	a5,s0,a5
ffffffc05020434e:	012a8533          	add	a0,s5,s2
ffffffc050204352:	97d6                	add	a5,a5,s5
ffffffc050204354:	57f8                	lw	a4,108(a5)
ffffffc050204356:	2705                	addiw	a4,a4,1
ffffffc050204358:	d7f8                	sw	a4,108(a5)
ffffffc05020435a:	d05fe0ef          	jal	ffffffc05020305e <spin_lock_release>
ffffffc05020435e:	a83d                	j	ffffffc05020439c <do_mbox_open+0xa4>
ffffffc050204360:	0001a497          	auipc	s1,0x1a
ffffffc050204364:	8c848493          	addi	s1,s1,-1848 # ffffffc05021dc28 <mboxes+0x70>
ffffffc050204368:	4401                	li	s0,0
ffffffc05020436a:	4941                	li	s2,16
ffffffc05020436c:	a031                	j	ffffffc050204378 <do_mbox_open+0x80>
ffffffc05020436e:	2405                	addiw	s0,s0,1
ffffffc050204370:	09848493          	addi	s1,s1,152
ffffffc050204374:	03240363          	beq	s0,s2,ffffffc05020439a <do_mbox_open+0xa2>
ffffffc050204378:	ffc4a783          	lw	a5,-4(s1)
ffffffc05020437c:	fbed                	bnez	a5,ffffffc05020436e <do_mbox_open+0x76>
ffffffc05020437e:	8526                	mv	a0,s1
ffffffc050204380:	cd3fe0ef          	jal	ffffffc050203052 <spin_lock_acquire>
ffffffc050204384:	ffc4a783          	lw	a5,-4(s1)
ffffffc050204388:	8526                	mv	a0,s1
ffffffc05020438a:	c39d                	beqz	a5,ffffffc0502043b0 <do_mbox_open+0xb8>
ffffffc05020438c:	2405                	addiw	s0,s0,1
ffffffc05020438e:	cd1fe0ef          	jal	ffffffc05020305e <spin_lock_release>
ffffffc050204392:	09848493          	addi	s1,s1,152
ffffffc050204396:	ff2411e3          	bne	s0,s2,ffffffc050204378 <do_mbox_open+0x80>
ffffffc05020439a:	547d                	li	s0,-1
ffffffc05020439c:	70e2                	ld	ra,56(sp)
ffffffc05020439e:	8522                	mv	a0,s0
ffffffc0502043a0:	7442                	ld	s0,48(sp)
ffffffc0502043a2:	74a2                	ld	s1,40(sp)
ffffffc0502043a4:	7902                	ld	s2,32(sp)
ffffffc0502043a6:	69e2                	ld	s3,24(sp)
ffffffc0502043a8:	6a42                	ld	s4,16(sp)
ffffffc0502043aa:	6aa2                	ld	s5,8(sp)
ffffffc0502043ac:	6121                	addi	sp,sp,64
ffffffc0502043ae:	8082                	ret
ffffffc0502043b0:	41548933          	sub	s2,s1,s5
ffffffc0502043b4:	f9090913          	addi	s2,s2,-112
ffffffc0502043b8:	85ce                	mv	a1,s3
ffffffc0502043ba:	012a8533          	add	a0,s5,s2
ffffffc0502043be:	33d000ef          	jal	ffffffc050204efa <strcpy>
ffffffc0502043c2:	09800613          	li	a2,152
ffffffc0502043c6:	02c40633          	mul	a2,s0,a2
ffffffc0502043ca:	4585                	li	a1,1
ffffffc0502043cc:	1582                	slli	a1,a1,0x20
ffffffc0502043ce:	07890713          	addi	a4,s2,120
ffffffc0502043d2:	08890793          	addi	a5,s2,136
ffffffc0502043d6:	9756                	add	a4,a4,s5
ffffffc0502043d8:	97d6                	add	a5,a5,s5
ffffffc0502043da:	8526                	mv	a0,s1
ffffffc0502043dc:	06060693          	addi	a3,a2,96
ffffffc0502043e0:	96d6                	add	a3,a3,s5
ffffffc0502043e2:	0006b023          	sd	zero,0(a3)
ffffffc0502043e6:	9ab2                	add	s5,s5,a2
ffffffc0502043e8:	e68c                	sd	a1,8(a3)
ffffffc0502043ea:	06eabc23          	sd	a4,120(s5)
ffffffc0502043ee:	08eab023          	sd	a4,128(s5)
ffffffc0502043f2:	08fab423          	sd	a5,136(s5)
ffffffc0502043f6:	08fab823          	sd	a5,144(s5)
ffffffc0502043fa:	c65fe0ef          	jal	ffffffc05020305e <spin_lock_release>
ffffffc0502043fe:	bf79                	j	ffffffc05020439c <do_mbox_open+0xa4>

ffffffc050204400 <do_mbox_close>:
ffffffc050204400:	47bd                	li	a5,15
ffffffc050204402:	00a7f363          	bgeu	a5,a0,ffffffc050204408 <do_mbox_close+0x8>
ffffffc050204406:	8082                	ret
ffffffc050204408:	09800793          	li	a5,152
ffffffc05020440c:	02f507b3          	mul	a5,a0,a5
ffffffc050204410:	00019697          	auipc	a3,0x19
ffffffc050204414:	7a868693          	addi	a3,a3,1960 # ffffffc05021dbb8 <mboxes>
ffffffc050204418:	1101                	addi	sp,sp,-32
ffffffc05020441a:	ec06                	sd	ra,24(sp)
ffffffc05020441c:	07078513          	addi	a0,a5,112
ffffffc050204420:	9536                	add	a0,a0,a3
ffffffc050204422:	e43e                	sd	a5,8(sp)
ffffffc050204424:	e02a                	sd	a0,0(sp)
ffffffc050204426:	c2dfe0ef          	jal	ffffffc050203052 <spin_lock_acquire>
ffffffc05020442a:	67a2                	ld	a5,8(sp)
ffffffc05020442c:	00019697          	auipc	a3,0x19
ffffffc050204430:	78c68693          	addi	a3,a3,1932 # ffffffc05021dbb8 <mboxes>
ffffffc050204434:	6502                	ld	a0,0(sp)
ffffffc050204436:	00f68633          	add	a2,a3,a5
ffffffc05020443a:	5678                	lw	a4,108(a2)
ffffffc05020443c:	00e05b63          	blez	a4,ffffffc050204452 <do_mbox_close+0x52>
ffffffc050204440:	377d                	addiw	a4,a4,-1
ffffffc050204442:	d678                	sw	a4,108(a2)
ffffffc050204444:	e719                	bnez	a4,ffffffc050204452 <do_mbox_close+0x52>
ffffffc050204446:	00060023          	sb	zero,0(a2)
ffffffc05020444a:	06062423          	sw	zero,104(a2)
ffffffc05020444e:	06063023          	sd	zero,96(a2)
ffffffc050204452:	60e2                	ld	ra,24(sp)
ffffffc050204454:	6105                	addi	sp,sp,32
ffffffc050204456:	c09fe06f          	j	ffffffc05020305e <spin_lock_release>

ffffffc05020445a <do_mbox_send>:
ffffffc05020445a:	fff6071b          	addiw	a4,a2,-1
ffffffc05020445e:	03f00793          	li	a5,63
ffffffc050204462:	00e7e563          	bltu	a5,a4,ffffffc05020446c <do_mbox_send+0x12>
ffffffc050204466:	47bd                	li	a5,15
ffffffc050204468:	00a7f463          	bgeu	a5,a0,ffffffc050204470 <do_mbox_send+0x16>
ffffffc05020446c:	4501                	li	a0,0
ffffffc05020446e:	8082                	ret
ffffffc050204470:	715d                	addi	sp,sp,-80
ffffffc050204472:	09800793          	li	a5,152
ffffffc050204476:	e0a2                	sd	s0,64(sp)
ffffffc050204478:	02f50433          	mul	s0,a0,a5
ffffffc05020447c:	f84a                	sd	s2,48(sp)
ffffffc05020447e:	f052                	sd	s4,32(sp)
ffffffc050204480:	00019a17          	auipc	s4,0x19
ffffffc050204484:	738a0a13          	addi	s4,s4,1848 # ffffffc05021dbb8 <mboxes>
ffffffc050204488:	f44e                	sd	s3,40(sp)
ffffffc05020448a:	e85a                	sd	s6,16(sp)
ffffffc05020448c:	8b2a                	mv	s6,a0
ffffffc05020448e:	fc26                	sd	s1,56(sp)
ffffffc050204490:	ec56                	sd	s5,24(sp)
ffffffc050204492:	e45e                	sd	s7,8(sp)
ffffffc050204494:	07040913          	addi	s2,s0,112
ffffffc050204498:	9952                	add	s2,s2,s4
ffffffc05020449a:	07840993          	addi	s3,s0,120
ffffffc05020449e:	854a                	mv	a0,s2
ffffffc0502044a0:	e486                	sd	ra,72(sp)
ffffffc0502044a2:	8aae                	mv	s5,a1
ffffffc0502044a4:	84b2                	mv	s1,a2
ffffffc0502044a6:	8ba2                	mv	s7,s0
ffffffc0502044a8:	99d2                	add	s3,s3,s4
ffffffc0502044aa:	9452                	add	s0,s0,s4
ffffffc0502044ac:	ba7fe0ef          	jal	ffffffc050203052 <spin_lock_acquire>
ffffffc0502044b0:	04000a13          	li	s4,64
ffffffc0502044b4:	a01d                	j	ffffffc0502044da <do_mbox_send+0x80>
ffffffc0502044b6:	6058                	ld	a4,128(s0)
ffffffc0502044b8:	e05c                	sd	a5,128(s0)
ffffffc0502044ba:	03323023          	sd	s3,32(tp) # 20 <per_cpu_stack_size-0xfe0>
ffffffc0502044be:	02e23423          	sd	a4,40(tp) # 28 <per_cpu_stack_size-0xfd8>
ffffffc0502044c2:	e31c                	sd	a5,0(a4)
ffffffc0502044c4:	04022823          	sw	zero,80(tp) # 50 <per_cpu_stack_size-0xfb0>
ffffffc0502044c8:	b97fe0ef          	jal	ffffffc05020305e <spin_lock_release>
ffffffc0502044cc:	c96ff0ef          	jal	ffffffc050203962 <do_scheduler>
ffffffc0502044d0:	854a                	mv	a0,s2
ffffffc0502044d2:	b81fe0ef          	jal	ffffffc050203052 <spin_lock_acquire>
ffffffc0502044d6:	547c                	lw	a5,108(s0)
ffffffc0502044d8:	c3f9                	beqz	a5,ffffffc05020459e <do_mbox_send+0x144>
ffffffc0502044da:	5434                	lw	a3,104(s0)
ffffffc0502044dc:	02020793          	addi	a5,tp,32 # 20 <per_cpu_stack_size-0xfe0>
ffffffc0502044e0:	854a                	mv	a0,s2
ffffffc0502044e2:	40da073b          	subw	a4,s4,a3
ffffffc0502044e6:	fc9748e3          	blt	a4,s1,ffffffc0502044b6 <do_mbox_send+0x5c>
ffffffc0502044ea:	09800513          	li	a0,152
ffffffc0502044ee:	02ab0533          	mul	a0,s6,a0
ffffffc0502044f2:	506c                	lw	a1,100(s0)
ffffffc0502044f4:	00019797          	auipc	a5,0x19
ffffffc0502044f8:	6c478793          	addi	a5,a5,1732 # ffffffc05021dbb8 <mboxes>
ffffffc0502044fc:	4601                	li	a2,0
ffffffc0502044fe:	953e                	add	a0,a0,a5
ffffffc050204500:	0015879b          	addiw	a5,a1,1
ffffffc050204504:	41f7d71b          	sraiw	a4,a5,0x1f
ffffffc050204508:	00ca8833          	add	a6,s5,a2
ffffffc05020450c:	01a7571b          	srliw	a4,a4,0x1a
ffffffc050204510:	00084883          	lbu	a7,0(a6)
ffffffc050204514:	9fb9                	addw	a5,a5,a4
ffffffc050204516:	03f7f793          	andi	a5,a5,63
ffffffc05020451a:	00b50833          	add	a6,a0,a1
ffffffc05020451e:	0605                	addi	a2,a2,1
ffffffc050204520:	40e785bb          	subw	a1,a5,a4
ffffffc050204524:	03180023          	sb	a7,32(a6)
ffffffc050204528:	d16c                	sw	a1,100(a0)
ffffffc05020452a:	0006079b          	sext.w	a5,a2
ffffffc05020452e:	fc97c9e3          	blt	a5,s1,ffffffc050204500 <do_mbox_send+0xa6>
ffffffc050204532:	655c                	ld	a5,136(a0)
ffffffc050204534:	088b8713          	addi	a4,s7,136
ffffffc050204538:	9ea5                	addw	a3,a3,s1
ffffffc05020453a:	00019617          	auipc	a2,0x19
ffffffc05020453e:	67e60613          	addi	a2,a2,1662 # ffffffc05021dbb8 <mboxes>
ffffffc050204542:	d534                	sw	a3,104(a0)
ffffffc050204544:	00e60533          	add	a0,a2,a4
ffffffc050204548:	00002717          	auipc	a4,0x2
ffffffc05020454c:	1c870713          	addi	a4,a4,456 # ffffffc050206710 <ready_queue>
ffffffc050204550:	02f50863          	beq	a0,a5,ffffffc050204580 <do_mbox_send+0x126>
ffffffc050204554:	09800693          	li	a3,152
ffffffc050204558:	02db06b3          	mul	a3,s6,a3
ffffffc05020455c:	4889                	li	a7,2
ffffffc05020455e:	00d60833          	add	a6,a2,a3
ffffffc050204562:	6790                	ld	a2,8(a5)
ffffffc050204564:	638c                	ld	a1,0(a5)
ffffffc050204566:	e590                	sd	a2,8(a1)
ffffffc050204568:	6714                	ld	a3,8(a4)
ffffffc05020456a:	e20c                	sd	a1,0(a2)
ffffffc05020456c:	e71c                	sd	a5,8(a4)
ffffffc05020456e:	0317a823          	sw	a7,48(a5)
ffffffc050204572:	e794                	sd	a3,8(a5)
ffffffc050204574:	e398                	sd	a4,0(a5)
ffffffc050204576:	e29c                	sd	a5,0(a3)
ffffffc050204578:	08883783          	ld	a5,136(a6)
ffffffc05020457c:	fea793e3          	bne	a5,a0,ffffffc050204562 <do_mbox_send+0x108>
ffffffc050204580:	854a                	mv	a0,s2
ffffffc050204582:	addfe0ef          	jal	ffffffc05020305e <spin_lock_release>
ffffffc050204586:	8526                	mv	a0,s1
ffffffc050204588:	60a6                	ld	ra,72(sp)
ffffffc05020458a:	6406                	ld	s0,64(sp)
ffffffc05020458c:	74e2                	ld	s1,56(sp)
ffffffc05020458e:	7942                	ld	s2,48(sp)
ffffffc050204590:	79a2                	ld	s3,40(sp)
ffffffc050204592:	7a02                	ld	s4,32(sp)
ffffffc050204594:	6ae2                	ld	s5,24(sp)
ffffffc050204596:	6b42                	ld	s6,16(sp)
ffffffc050204598:	6ba2                	ld	s7,8(sp)
ffffffc05020459a:	6161                	addi	sp,sp,80
ffffffc05020459c:	8082                	ret
ffffffc05020459e:	854a                	mv	a0,s2
ffffffc0502045a0:	abffe0ef          	jal	ffffffc05020305e <spin_lock_release>
ffffffc0502045a4:	4501                	li	a0,0
ffffffc0502045a6:	b7cd                	j	ffffffc050204588 <do_mbox_send+0x12e>

ffffffc0502045a8 <do_mbox_recv>:
ffffffc0502045a8:	12c05263          	blez	a2,ffffffc0502046cc <do_mbox_recv+0x124>
ffffffc0502045ac:	47bd                	li	a5,15
ffffffc0502045ae:	10a7ef63          	bltu	a5,a0,ffffffc0502046cc <do_mbox_recv+0x124>
ffffffc0502045b2:	715d                	addi	sp,sp,-80
ffffffc0502045b4:	09800793          	li	a5,152
ffffffc0502045b8:	f052                	sd	s4,32(sp)
ffffffc0502045ba:	02f50a33          	mul	s4,a0,a5
ffffffc0502045be:	fc26                	sd	s1,56(sp)
ffffffc0502045c0:	f84a                	sd	s2,48(sp)
ffffffc0502045c2:	00019917          	auipc	s2,0x19
ffffffc0502045c6:	5f690913          	addi	s2,s2,1526 # ffffffc05021dbb8 <mboxes>
ffffffc0502045ca:	ec56                	sd	s5,24(sp)
ffffffc0502045cc:	e85a                	sd	s6,16(sp)
ffffffc0502045ce:	8b2a                	mv	s6,a0
ffffffc0502045d0:	e0a2                	sd	s0,64(sp)
ffffffc0502045d2:	f44e                	sd	s3,40(sp)
ffffffc0502045d4:	e45e                	sd	s7,8(sp)
ffffffc0502045d6:	070a0493          	addi	s1,s4,112
ffffffc0502045da:	94ca                	add	s1,s1,s2
ffffffc0502045dc:	088a0a93          	addi	s5,s4,136
ffffffc0502045e0:	8526                	mv	a0,s1
ffffffc0502045e2:	e486                	sd	ra,72(sp)
ffffffc0502045e4:	89ae                	mv	s3,a1
ffffffc0502045e6:	8432                	mv	s0,a2
ffffffc0502045e8:	8bd2                	mv	s7,s4
ffffffc0502045ea:	a69fe0ef          	jal	ffffffc050203052 <spin_lock_acquire>
ffffffc0502045ee:	9aca                	add	s5,s5,s2
ffffffc0502045f0:	9a4a                	add	s4,s4,s2
ffffffc0502045f2:	a035                	j	ffffffc05020461e <do_mbox_recv+0x76>
ffffffc0502045f4:	090a3703          	ld	a4,144(s4)
ffffffc0502045f8:	08fa3823          	sd	a5,144(s4)
ffffffc0502045fc:	03523023          	sd	s5,32(tp) # 20 <per_cpu_stack_size-0xfe0>
ffffffc050204600:	02e23423          	sd	a4,40(tp) # 28 <per_cpu_stack_size-0xfd8>
ffffffc050204604:	e31c                	sd	a5,0(a4)
ffffffc050204606:	04022823          	sw	zero,80(tp) # 50 <per_cpu_stack_size-0xfb0>
ffffffc05020460a:	a55fe0ef          	jal	ffffffc05020305e <spin_lock_release>
ffffffc05020460e:	b54ff0ef          	jal	ffffffc050203962 <do_scheduler>
ffffffc050204612:	8526                	mv	a0,s1
ffffffc050204614:	a3ffe0ef          	jal	ffffffc050203052 <spin_lock_acquire>
ffffffc050204618:	06ca2783          	lw	a5,108(s4)
ffffffc05020461c:	cbd5                	beqz	a5,ffffffc0502046d0 <do_mbox_recv+0x128>
ffffffc05020461e:	068a2703          	lw	a4,104(s4)
ffffffc050204622:	02020793          	addi	a5,tp,32 # 20 <per_cpu_stack_size-0xfe0>
ffffffc050204626:	8526                	mv	a0,s1
ffffffc050204628:	fc8746e3          	blt	a4,s0,ffffffc0502045f4 <do_mbox_recv+0x4c>
ffffffc05020462c:	09800613          	li	a2,152
ffffffc050204630:	02cb0633          	mul	a2,s6,a2
ffffffc050204634:	060a2783          	lw	a5,96(s4)
ffffffc050204638:	4681                	li	a3,0
ffffffc05020463a:	964a                	add	a2,a2,s2
ffffffc05020463c:	97b2                	add	a5,a5,a2
ffffffc05020463e:	0207c703          	lbu	a4,32(a5)
ffffffc050204642:	00d987b3          	add	a5,s3,a3
ffffffc050204646:	0685                	addi	a3,a3,1
ffffffc050204648:	00e78023          	sb	a4,0(a5)
ffffffc05020464c:	523c                	lw	a5,96(a2)
ffffffc05020464e:	0006859b          	sext.w	a1,a3
ffffffc050204652:	2785                	addiw	a5,a5,1
ffffffc050204654:	41f7d71b          	sraiw	a4,a5,0x1f
ffffffc050204658:	01a7571b          	srliw	a4,a4,0x1a
ffffffc05020465c:	9fb9                	addw	a5,a5,a4
ffffffc05020465e:	03f7f793          	andi	a5,a5,63
ffffffc050204662:	9f99                	subw	a5,a5,a4
ffffffc050204664:	d23c                	sw	a5,96(a2)
ffffffc050204666:	fc85cbe3          	blt	a1,s0,ffffffc05020463c <do_mbox_recv+0x94>
ffffffc05020466a:	5638                	lw	a4,104(a2)
ffffffc05020466c:	7e3c                	ld	a5,120(a2)
ffffffc05020466e:	078b8513          	addi	a0,s7,120
ffffffc050204672:	9f01                	subw	a4,a4,s0
ffffffc050204674:	d638                	sw	a4,104(a2)
ffffffc050204676:	954a                	add	a0,a0,s2
ffffffc050204678:	00002717          	auipc	a4,0x2
ffffffc05020467c:	09870713          	addi	a4,a4,152 # ffffffc050206710 <ready_queue>
ffffffc050204680:	02f50763          	beq	a0,a5,ffffffc0502046ae <do_mbox_recv+0x106>
ffffffc050204684:	09800693          	li	a3,152
ffffffc050204688:	02db06b3          	mul	a3,s6,a3
ffffffc05020468c:	4809                	li	a6,2
ffffffc05020468e:	9936                	add	s2,s2,a3
ffffffc050204690:	6790                	ld	a2,8(a5)
ffffffc050204692:	638c                	ld	a1,0(a5)
ffffffc050204694:	e590                	sd	a2,8(a1)
ffffffc050204696:	6714                	ld	a3,8(a4)
ffffffc050204698:	e20c                	sd	a1,0(a2)
ffffffc05020469a:	e71c                	sd	a5,8(a4)
ffffffc05020469c:	0307a823          	sw	a6,48(a5)
ffffffc0502046a0:	e794                	sd	a3,8(a5)
ffffffc0502046a2:	e398                	sd	a4,0(a5)
ffffffc0502046a4:	e29c                	sd	a5,0(a3)
ffffffc0502046a6:	07893783          	ld	a5,120(s2)
ffffffc0502046aa:	fea793e3          	bne	a5,a0,ffffffc050204690 <do_mbox_recv+0xe8>
ffffffc0502046ae:	8526                	mv	a0,s1
ffffffc0502046b0:	9affe0ef          	jal	ffffffc05020305e <spin_lock_release>
ffffffc0502046b4:	8522                	mv	a0,s0
ffffffc0502046b6:	60a6                	ld	ra,72(sp)
ffffffc0502046b8:	6406                	ld	s0,64(sp)
ffffffc0502046ba:	74e2                	ld	s1,56(sp)
ffffffc0502046bc:	7942                	ld	s2,48(sp)
ffffffc0502046be:	79a2                	ld	s3,40(sp)
ffffffc0502046c0:	7a02                	ld	s4,32(sp)
ffffffc0502046c2:	6ae2                	ld	s5,24(sp)
ffffffc0502046c4:	6b42                	ld	s6,16(sp)
ffffffc0502046c6:	6ba2                	ld	s7,8(sp)
ffffffc0502046c8:	6161                	addi	sp,sp,80
ffffffc0502046ca:	8082                	ret
ffffffc0502046cc:	4501                	li	a0,0
ffffffc0502046ce:	8082                	ret
ffffffc0502046d0:	8526                	mv	a0,s1
ffffffc0502046d2:	98dfe0ef          	jal	ffffffc05020305e <spin_lock_release>
ffffffc0502046d6:	4501                	li	a0,0
ffffffc0502046d8:	bff9                	j	ffffffc0502046b6 <do_mbox_recv+0x10e>

ffffffc0502046da <do_taskset>:
ffffffc0502046da:	c129                	beqz	a0,ffffffc05020471c <do_taskset+0x42>
ffffffc0502046dc:	c1a9                	beqz	a1,ffffffc05020471e <do_taskset+0x44>
ffffffc0502046de:	00019797          	auipc	a5,0x19
ffffffc0502046e2:	a9a78793          	addi	a5,a5,-1382 # ffffffc05021d178 <pcb+0x40>
ffffffc0502046e6:	4701                	li	a4,0
ffffffc0502046e8:	480d                	li	a6,3
ffffffc0502046ea:	4641                	li	a2,16
ffffffc0502046ec:	a031                	j	ffffffc0502046f8 <do_taskset+0x1e>
ffffffc0502046ee:	2705                	addiw	a4,a4,1
ffffffc0502046f0:	07078793          	addi	a5,a5,112
ffffffc0502046f4:	02c70463          	beq	a4,a2,ffffffc05020471c <do_taskset+0x42>
ffffffc0502046f8:	4394                	lw	a3,0(a5)
ffffffc0502046fa:	feb69ae3          	bne	a3,a1,ffffffc0502046ee <do_taskset+0x14>
ffffffc0502046fe:	4b94                	lw	a3,16(a5)
ffffffc050204700:	ff0687e3          	beq	a3,a6,ffffffc0502046ee <do_taskset+0x14>
ffffffc050204704:	00371793          	slli	a5,a4,0x3
ffffffc050204708:	8f99                	sub	a5,a5,a4
ffffffc05020470a:	0792                	slli	a5,a5,0x4
ffffffc05020470c:	00019717          	auipc	a4,0x19
ffffffc050204710:	94c70713          	addi	a4,a4,-1716 # ffffffc05021d058 <pid0_pcb>
ffffffc050204714:	97ba                	add	a5,a5,a4
ffffffc050204716:	14a7a423          	sw	a0,328(a5)
ffffffc05020471a:	8082                	ret
ffffffc05020471c:	8082                	ret
ffffffc05020471e:	06a22423          	sw	a0,104(tp) # 68 <per_cpu_stack_size-0xf98>
ffffffc050204722:	8082                	ret

ffffffc050204724 <get_ticks>:
ffffffc050204724:	c0102573          	rdtime	a0
ffffffc050204728:	00002797          	auipc	a5,0x2
ffffffc05020472c:	06a7b423          	sd	a0,104(a5) # ffffffc050206790 <time_elapsed>
ffffffc050204730:	8082                	ret

ffffffc050204732 <get_timer>:
ffffffc050204732:	c01027f3          	rdtime	a5
ffffffc050204736:	00002517          	auipc	a0,0x2
ffffffc05020473a:	05253503          	ld	a0,82(a0) # ffffffc050206788 <time_base>
ffffffc05020473e:	00002717          	auipc	a4,0x2
ffffffc050204742:	04f73923          	sd	a5,82(a4) # ffffffc050206790 <time_elapsed>
ffffffc050204746:	02a7d533          	divu	a0,a5,a0
ffffffc05020474a:	8082                	ret

ffffffc05020474c <get_time_base>:
ffffffc05020474c:	00002517          	auipc	a0,0x2
ffffffc050204750:	03c53503          	ld	a0,60(a0) # ffffffc050206788 <time_base>
ffffffc050204754:	8082                	ret

ffffffc050204756 <latency>:
ffffffc050204756:	c01026f3          	rdtime	a3
ffffffc05020475a:	00002617          	auipc	a2,0x2
ffffffc05020475e:	02e60613          	addi	a2,a2,46 # ffffffc050206788 <time_base>
ffffffc050204762:	621c                	ld	a5,0(a2)
ffffffc050204764:	02f6d6b3          	divu	a3,a3,a5
ffffffc050204768:	c01027f3          	rdtime	a5
ffffffc05020476c:	6218                	ld	a4,0(a2)
ffffffc05020476e:	00002597          	auipc	a1,0x2
ffffffc050204772:	02f5b123          	sd	a5,34(a1) # ffffffc050206790 <time_elapsed>
ffffffc050204776:	02e7d7b3          	divu	a5,a5,a4
ffffffc05020477a:	8f95                	sub	a5,a5,a3
ffffffc05020477c:	fea7e6e3          	bltu	a5,a0,ffffffc050204768 <latency+0x12>
ffffffc050204780:	8082                	ret

ffffffc050204782 <check_sleeping>:
ffffffc050204782:	1101                	addi	sp,sp,-32
ffffffc050204784:	ec06                	sd	ra,24(sp)
ffffffc050204786:	e822                	sd	s0,16(sp)
ffffffc050204788:	e426                	sd	s1,8(sp)
ffffffc05020478a:	e04a                	sd	s2,0(sp)
ffffffc05020478c:	c0102973          	rdtime	s2
ffffffc050204790:	00002497          	auipc	s1,0x2
ffffffc050204794:	f9048493          	addi	s1,s1,-112 # ffffffc050206720 <sleep_queue>
ffffffc050204798:	6080                	ld	s0,0(s1)
ffffffc05020479a:	00002797          	auipc	a5,0x2
ffffffc05020479e:	ff27bb23          	sd	s2,-10(a5) # ffffffc050206790 <time_elapsed>
ffffffc0502047a2:	00940b63          	beq	s0,s1,ffffffc0502047b8 <check_sleeping+0x36>
ffffffc0502047a6:	603c                	ld	a5,64(s0)
ffffffc0502047a8:	8522                	mv	a0,s0
ffffffc0502047aa:	6000                	ld	s0,0(s0)
ffffffc0502047ac:	fef96be3          	bltu	s2,a5,ffffffc0502047a2 <check_sleeping+0x20>
ffffffc0502047b0:	ac6ff0ef          	jal	ffffffc050203a76 <do_unblock>
ffffffc0502047b4:	fe9419e3          	bne	s0,s1,ffffffc0502047a6 <check_sleeping+0x24>
ffffffc0502047b8:	60e2                	ld	ra,24(sp)
ffffffc0502047ba:	6442                	ld	s0,16(sp)
ffffffc0502047bc:	64a2                	ld	s1,8(sp)
ffffffc0502047be:	6902                	ld	s2,0(sp)
ffffffc0502047c0:	6105                	addi	sp,sp,32
ffffffc0502047c2:	8082                	ret

ffffffc0502047c4 <smp_init>:
ffffffc0502047c4:	00002517          	auipc	a0,0x2
ffffffc0502047c8:	fd450513          	addi	a0,a0,-44 # ffffffc050206798 <kernel_lock>
ffffffc0502047cc:	873fe06f          	j	ffffffc05020303e <spin_lock_init>

ffffffc0502047d0 <wakeup_other_hart>:
ffffffc0502047d0:	4501                	li	a0,0
ffffffc0502047d2:	a9cfe06f          	j	ffffffc050202a6e <send_ipi>

ffffffc0502047d6 <lock_kernel>:
ffffffc0502047d6:	00002517          	auipc	a0,0x2
ffffffc0502047da:	fc250513          	addi	a0,a0,-62 # ffffffc050206798 <kernel_lock>
ffffffc0502047de:	875fe06f          	j	ffffffc050203052 <spin_lock_acquire>

ffffffc0502047e2 <unlock_kernel>:
ffffffc0502047e2:	00002517          	auipc	a0,0x2
ffffffc0502047e6:	fb650513          	addi	a0,a0,-74 # ffffffc050206798 <kernel_lock>
ffffffc0502047ea:	875fe06f          	j	ffffffc05020305e <spin_lock_release>

ffffffc0502047ee <handle_syscall>:
ffffffc0502047ee:	654c                	ld	a1,136(a0)
ffffffc0502047f0:	1141                	addi	sp,sp,-16
ffffffc0502047f2:	e022                	sd	s0,0(sp)
ffffffc0502047f4:	e406                	sd	ra,8(sp)
ffffffc0502047f6:	05f00793          	li	a5,95
ffffffc0502047fa:	842a                	mv	s0,a0
ffffffc0502047fc:	02b7e963          	bltu	a5,a1,ffffffc05020482e <handle_syscall+0x40>
ffffffc050204800:	0001a797          	auipc	a5,0x1a
ffffffc050204804:	d3878793          	addi	a5,a5,-712 # ffffffc05021e538 <syscall>
ffffffc050204808:	00359713          	slli	a4,a1,0x3
ffffffc05020480c:	97ba                	add	a5,a5,a4
ffffffc05020480e:	639c                	ld	a5,0(a5)
ffffffc050204810:	cf99                	beqz	a5,ffffffc05020482e <handle_syscall+0x40>
ffffffc050204812:	7130                	ld	a2,96(a0)
ffffffc050204814:	6d2c                	ld	a1,88(a0)
ffffffc050204816:	6928                	ld	a0,80(a0)
ffffffc050204818:	9782                	jalr	a5
ffffffc05020481a:	10843783          	ld	a5,264(s0)
ffffffc05020481e:	60a2                	ld	ra,8(sp)
ffffffc050204820:	e828                	sd	a0,80(s0)
ffffffc050204822:	0791                	addi	a5,a5,4
ffffffc050204824:	10f43423          	sd	a5,264(s0)
ffffffc050204828:	6402                	ld	s0,0(sp)
ffffffc05020482a:	0141                	addi	sp,sp,16
ffffffc05020482c:	8082                	ret
ffffffc05020482e:	00001517          	auipc	a0,0x1
ffffffc050204832:	c7250513          	addi	a0,a0,-910 # ffffffc0502054a0 <strcat+0x540>
ffffffc050204836:	542000ef          	jal	ffffffc050204d78 <printk>
ffffffc05020483a:	10843783          	ld	a5,264(s0)
ffffffc05020483e:	557d                	li	a0,-1
ffffffc050204840:	60a2                	ld	ra,8(sp)
ffffffc050204842:	0791                	addi	a5,a5,4
ffffffc050204844:	e828                	sd	a0,80(s0)
ffffffc050204846:	10f43423          	sd	a5,264(s0)
ffffffc05020484a:	6402                	ld	s0,0(sp)
ffffffc05020484c:	0141                	addi	sp,sp,16
ffffffc05020484e:	8082                	ret

ffffffc050204850 <bios_putstr>:
ffffffc050204850:	fe0297b7          	lui	a5,0xfe029
ffffffc050204854:	07b6                	slli	a5,a5,0xd
ffffffc050204856:	f0078793          	addi	a5,a5,-256 # fffffffffe028f00 <__BSS_END__+0x3fade0a6c8>
ffffffc05020485a:	639c                	ld	a5,0(a5)
ffffffc05020485c:	4701                	li	a4,0
ffffffc05020485e:	4681                	li	a3,0
ffffffc050204860:	4601                	li	a2,0
ffffffc050204862:	4581                	li	a1,0
ffffffc050204864:	8782                	jr	a5

ffffffc050204866 <bios_logging>:
ffffffc050204866:	fe0297b7          	lui	a5,0xfe029
ffffffc05020486a:	07b6                	slli	a5,a5,0xd
ffffffc05020486c:	f2878793          	addi	a5,a5,-216 # fffffffffe028f28 <__BSS_END__+0x3fade0a6f0>
ffffffc050204870:	639c                	ld	a5,0(a5)
ffffffc050204872:	4701                	li	a4,0
ffffffc050204874:	4681                	li	a3,0
ffffffc050204876:	4601                	li	a2,0
ffffffc050204878:	4581                	li	a1,0
ffffffc05020487a:	8782                	jr	a5

ffffffc05020487c <_output_wrapper>:
ffffffc05020487c:	1141                	addi	sp,sp,-16
ffffffc05020487e:	e406                	sd	ra,8(sp)
ffffffc050204880:	aecfe0ef          	jal	ffffffc050202b6c <screen_write>
ffffffc050204884:	60a2                	ld	ra,8(sp)
ffffffc050204886:	0141                	addi	sp,sp,16
ffffffc050204888:	b12fe06f          	j	ffffffc050202b9a <screen_reflush>

ffffffc05020488c <mini_itoa.part.0>:
ffffffc05020488c:	12055c63          	bgez	a0,ffffffc0502049c4 <mini_itoa.part.0+0x138>
ffffffc050204890:	03f69313          	slli	t1,a3,0x3f
ffffffc050204894:	03f35893          	srli	a7,t1,0x3f
ffffffc050204898:	12089663          	bnez	a7,ffffffc0502049c4 <mini_itoa.part.0+0x138>
ffffffc05020489c:	40a00533          	neg	a0,a0
ffffffc0502048a0:	4f05                	li	t5,1
ffffffc0502048a2:	0016f893          	andi	a7,a3,1
ffffffc0502048a6:	06100e93          	li	t4,97
ffffffc0502048aa:	00088463          	beqz	a7,ffffffc0502048b2 <mini_itoa.part.0+0x26>
ffffffc0502048ae:	04100e93          	li	t4,65
ffffffc0502048b2:	1582                	slli	a1,a1,0x20
ffffffc0502048b4:	3ed9                	addiw	t4,t4,-10
ffffffc0502048b6:	00170893          	addi	a7,a4,1
ffffffc0502048ba:	9181                	srli	a1,a1,0x20
ffffffc0502048bc:	4fa5                	li	t6,9
ffffffc0502048be:	4e25                	li	t3,9
ffffffc0502048c0:	ce81                	beqz	a3,ffffffc0502048d8 <mini_itoa.part.0+0x4c>
ffffffc0502048c2:	a85d                	j	ffffffc050204978 <mini_itoa.part.0+0xec>
ffffffc0502048c4:	01d68fbb          	addw	t6,a3,t4
ffffffc0502048c8:	ea65                	bnez	a2,ffffffc0502049b8 <mini_itoa.part.0+0x12c>
ffffffc0502048ca:	4341                	li	t1,16
ffffffc0502048cc:	02654533          	div	a0,a0,t1
ffffffc0502048d0:	fff88fa3          	sb	t6,-1(a7)
ffffffc0502048d4:	cd11                	beqz	a0,ffffffc0502048f0 <mini_itoa.part.0+0x64>
ffffffc0502048d6:	0885                	addi	a7,a7,1
ffffffc0502048d8:	02b566b3          	rem	a3,a0,a1
ffffffc0502048dc:	832e                	mv	t1,a1
ffffffc0502048de:	fede43e3          	blt	t3,a3,ffffffc0502048c4 <mini_itoa.part.0+0x38>
ffffffc0502048e2:	0306869b          	addiw	a3,a3,48
ffffffc0502048e6:	fed88fa3          	sb	a3,-1(a7)
ffffffc0502048ea:	02654533          	div	a0,a0,t1
ffffffc0502048ee:	f565                	bnez	a0,ffffffc0502048d6 <mini_itoa.part.0+0x4a>
ffffffc0502048f0:	40e886bb          	subw	a3,a7,a4
ffffffc0502048f4:	02f6f263          	bgeu	a3,a5,ffffffc050204918 <mini_itoa.part.0+0x8c>
ffffffc0502048f8:	fff7861b          	addiw	a2,a5,-1
ffffffc0502048fc:	9e15                	subw	a2,a2,a3
ffffffc0502048fe:	1602                	slli	a2,a2,0x20
ffffffc050204900:	9201                	srli	a2,a2,0x20
ffffffc050204902:	00160693          	addi	a3,a2,1
ffffffc050204906:	87c6                	mv	a5,a7
ffffffc050204908:	96c6                	add	a3,a3,a7
ffffffc05020490a:	0785                	addi	a5,a5,1
ffffffc05020490c:	ff078fa3          	sb	a6,-1(a5)
ffffffc050204910:	fed79de3          	bne	a5,a3,ffffffc05020490a <mini_itoa.part.0+0x7e>
ffffffc050204914:	0885                	addi	a7,a7,1
ffffffc050204916:	98b2                	add	a7,a7,a2
ffffffc050204918:	000f0763          	beqz	t5,ffffffc050204926 <mini_itoa.part.0+0x9a>
ffffffc05020491c:	02d00793          	li	a5,45
ffffffc050204920:	00f88023          	sb	a5,0(a7)
ffffffc050204924:	0885                	addi	a7,a7,1
ffffffc050204926:	40e8853b          	subw	a0,a7,a4
ffffffc05020492a:	00088023          	sb	zero,0(a7)
ffffffc05020492e:	0015589b          	srliw	a7,a0,0x1
ffffffc050204932:	08088863          	beqz	a7,ffffffc0502049c2 <mini_itoa.part.0+0x136>
ffffffc050204936:	fff7081b          	addiw	a6,a4,-1
ffffffc05020493a:	98ba                	add	a7,a7,a4
ffffffc05020493c:	00a8083b          	addw	a6,a6,a0
ffffffc050204940:	86ba                	mv	a3,a4
ffffffc050204942:	40d807bb          	subw	a5,a6,a3
ffffffc050204946:	1782                	slli	a5,a5,0x20
ffffffc050204948:	9381                	srli	a5,a5,0x20
ffffffc05020494a:	97ba                	add	a5,a5,a4
ffffffc05020494c:	0007c583          	lbu	a1,0(a5)
ffffffc050204950:	0006c603          	lbu	a2,0(a3)
ffffffc050204954:	0685                	addi	a3,a3,1
ffffffc050204956:	feb68fa3          	sb	a1,-1(a3)
ffffffc05020495a:	00c78023          	sb	a2,0(a5)
ffffffc05020495e:	fed892e3          	bne	a7,a3,ffffffc050204942 <mini_itoa.part.0+0xb6>
ffffffc050204962:	8082                	ret
ffffffc050204964:	4e41                	li	t3,16
ffffffc050204966:	0306869b          	addiw	a3,a3,48
ffffffc05020496a:	fed88fa3          	sb	a3,-1(a7)
ffffffc05020496e:	f9c361e3          	bltu	t1,t3,ffffffc0502048f0 <mini_itoa.part.0+0x64>
ffffffc050204972:	03c35533          	divu	a0,t1,t3
ffffffc050204976:	0885                	addi	a7,a7,1
ffffffc050204978:	832a                	mv	t1,a0
ffffffc05020497a:	8e2e                	mv	t3,a1
ffffffc05020497c:	02b576b3          	remu	a3,a0,a1
ffffffc050204980:	fedff3e3          	bgeu	t6,a3,ffffffc050204966 <mini_itoa.part.0+0xda>
ffffffc050204984:	c605                	beqz	a2,ffffffc0502049ac <mini_itoa.part.0+0x120>
ffffffc050204986:	01d686bb          	addw	a3,a3,t4
ffffffc05020498a:	fed88fa3          	sb	a3,-1(a7)
ffffffc05020498e:	00455313          	srli	t1,a0,0x4
ffffffc050204992:	00f37693          	andi	a3,t1,15
ffffffc050204996:	f4030de3          	beqz	t1,ffffffc0502048f0 <mini_itoa.part.0+0x64>
ffffffc05020499a:	0885                	addi	a7,a7,1
ffffffc05020499c:	fcdff4e3          	bgeu	t6,a3,ffffffc050204964 <mini_itoa.part.0+0xd8>
ffffffc0502049a0:	01d686bb          	addw	a3,a3,t4
ffffffc0502049a4:	fed88fa3          	sb	a3,-1(a7)
ffffffc0502049a8:	851a                	mv	a0,t1
ffffffc0502049aa:	b7d5                	j	ffffffc05020498e <mini_itoa.part.0+0x102>
ffffffc0502049ac:	0576869b          	addiw	a3,a3,87
ffffffc0502049b0:	fed88fa3          	sb	a3,-1(a7)
ffffffc0502049b4:	4e41                	li	t3,16
ffffffc0502049b6:	bf65                	j	ffffffc05020496e <mini_itoa.part.0+0xe2>
ffffffc0502049b8:	0376869b          	addiw	a3,a3,55
ffffffc0502049bc:	fed88fa3          	sb	a3,-1(a7)
ffffffc0502049c0:	b72d                	j	ffffffc0502048ea <mini_itoa.part.0+0x5e>
ffffffc0502049c2:	8082                	ret
ffffffc0502049c4:	4f01                	li	t5,0
ffffffc0502049c6:	bdf1                	j	ffffffc0502048a2 <mini_itoa.part.0+0x16>

ffffffc0502049c8 <_vprint>:
ffffffc0502049c8:	7125                	addi	sp,sp,-416
ffffffc0502049ca:	fece                	sd	s3,376(sp)
ffffffc0502049cc:	ef06                	sd	ra,408(sp)
ffffffc0502049ce:	fad2                	sd	s4,368(sp)
ffffffc0502049d0:	f6d6                	sd	s5,360(sp)
ffffffc0502049d2:	00054783          	lbu	a5,0(a0)
ffffffc0502049d6:	89b2                	mv	s3,a2
ffffffc0502049d8:	38078363          	beqz	a5,ffffffc050204d5e <_vprint+0x396>
ffffffc0502049dc:	03010a13          	addi	s4,sp,48
ffffffc0502049e0:	eb22                	sd	s0,400(sp)
ffffffc0502049e2:	e726                	sd	s1,392(sp)
ffffffc0502049e4:	f2da                	sd	s6,352(sp)
ffffffc0502049e6:	eede                	sd	s7,344(sp)
ffffffc0502049e8:	eae2                	sd	s8,336(sp)
ffffffc0502049ea:	e6e6                	sd	s9,328(sp)
ffffffc0502049ec:	e2ea                	sd	s10,320(sp)
ffffffc0502049ee:	fe6e                	sd	s11,312(sp)
ffffffc0502049f0:	e34a                	sd	s2,384(sp)
ffffffc0502049f2:	842a                	mv	s0,a0
ffffffc0502049f4:	84d2                	mv	s1,s4
ffffffc0502049f6:	00150613          	addi	a2,a0,1
ffffffc0502049fa:	0ff00b13          	li	s6,255
ffffffc0502049fe:	02500b93          	li	s7,37
ffffffc050204a02:	4ca5                	li	s9,9
ffffffc050204a04:	02000d13          	li	s10,32
ffffffc050204a08:	00001c17          	auipc	s8,0x1
ffffffc050204a0c:	c20c0c13          	addi	s8,s8,-992 # ffffffc050205628 <CSWTCH.50+0x18>
ffffffc050204a10:	06c00d93          	li	s11,108
ffffffc050204a14:	a005                	j	ffffffc050204a34 <_vprint+0x6c>
ffffffc050204a16:	00148713          	addi	a4,s1,1
ffffffc050204a1a:	00f48023          	sb	a5,0(s1)
ffffffc050204a1e:	000480a3          	sb	zero,1(s1)
ffffffc050204a22:	8432                	mv	s0,a2
ffffffc050204a24:	41470933          	sub	s2,a4,s4
ffffffc050204a28:	84ba                	mv	s1,a4
ffffffc050204a2a:	00044783          	lbu	a5,0(s0)
ffffffc050204a2e:	00140613          	addi	a2,s0,1
ffffffc050204a32:	c3cd                	beqz	a5,ffffffc050204ad4 <_vprint+0x10c>
ffffffc050204a34:	41448933          	sub	s2,s1,s4
ffffffc050204a38:	0019071b          	addiw	a4,s2,1
ffffffc050204a3c:	00090a9b          	sext.w	s5,s2
ffffffc050204a40:	08eb6c63          	bltu	s6,a4,ffffffc050204ad8 <_vprint+0x110>
ffffffc050204a44:	fd7799e3          	bne	a5,s7,ffffffc050204a16 <_vprint+0x4e>
ffffffc050204a48:	00144683          	lbu	a3,1(s0)
ffffffc050204a4c:	fd06879b          	addiw	a5,a3,-48
ffffffc050204a50:	0ff7f793          	zext.b	a5,a5
ffffffc050204a54:	02fcf563          	bgeu	s9,a5,ffffffc050204a7e <_vprint+0xb6>
ffffffc050204a58:	0409                	addi	s0,s0,2
ffffffc050204a5a:	02000813          	li	a6,32
ffffffc050204a5e:	4781                	li	a5,0
ffffffc050204a60:	4601                	li	a2,0
ffffffc050204a62:	07b68463          	beq	a3,s11,ffffffc050204aca <_vprint+0x102>
ffffffc050204a66:	caad                	beqz	a3,ffffffc050204ad8 <_vprint+0x110>
ffffffc050204a68:	fa86871b          	addiw	a4,a3,-88
ffffffc050204a6c:	0ff77713          	zext.b	a4,a4
ffffffc050204a70:	08ed6a63          	bltu	s10,a4,ffffffc050204b04 <_vprint+0x13c>
ffffffc050204a74:	070a                	slli	a4,a4,0x2
ffffffc050204a76:	9762                	add	a4,a4,s8
ffffffc050204a78:	4318                	lw	a4,0(a4)
ffffffc050204a7a:	9762                	add	a4,a4,s8
ffffffc050204a7c:	8702                	jr	a4
ffffffc050204a7e:	03000793          	li	a5,48
ffffffc050204a82:	02000813          	li	a6,32
ffffffc050204a86:	00f69363          	bne	a3,a5,ffffffc050204a8c <_vprint+0xc4>
ffffffc050204a8a:	8836                	mv	a6,a3
ffffffc050204a8c:	00064683          	lbu	a3,0(a2)
ffffffc050204a90:	c6a1                	beqz	a3,ffffffc050204ad8 <_vprint+0x110>
ffffffc050204a92:	00160413          	addi	s0,a2,1
ffffffc050204a96:	4781                	li	a5,0
ffffffc050204a98:	4625                	li	a2,9
ffffffc050204a9a:	a829                	j	ffffffc050204ab4 <_vprint+0xec>
ffffffc050204a9c:	0027971b          	slliw	a4,a5,0x2
ffffffc050204aa0:	9f3d                	addw	a4,a4,a5
ffffffc050204aa2:	0405                	addi	s0,s0,1
ffffffc050204aa4:	0017171b          	slliw	a4,a4,0x1
ffffffc050204aa8:	9f35                	addw	a4,a4,a3
ffffffc050204aaa:	fff44683          	lbu	a3,-1(s0)
ffffffc050204aae:	fd07079b          	addiw	a5,a4,-48
ffffffc050204ab2:	c29d                	beqz	a3,ffffffc050204ad8 <_vprint+0x110>
ffffffc050204ab4:	fd06871b          	addiw	a4,a3,-48
ffffffc050204ab8:	0ff77713          	zext.b	a4,a4
ffffffc050204abc:	fee670e3          	bgeu	a2,a4,ffffffc050204a9c <_vprint+0xd4>
ffffffc050204ac0:	06c00713          	li	a4,108
ffffffc050204ac4:	4601                	li	a2,0
ffffffc050204ac6:	fae691e3          	bne	a3,a4,ffffffc050204a68 <_vprint+0xa0>
ffffffc050204aca:	4605                	li	a2,1
ffffffc050204acc:	00044683          	lbu	a3,0(s0)
ffffffc050204ad0:	9432                	add	s0,s0,a2
ffffffc050204ad2:	bf51                	j	ffffffc050204a66 <_vprint+0x9e>
ffffffc050204ad4:	00090a9b          	sext.w	s5,s2
ffffffc050204ad8:	645a                	ld	s0,400(sp)
ffffffc050204ada:	64ba                	ld	s1,392(sp)
ffffffc050204adc:	691a                	ld	s2,384(sp)
ffffffc050204ade:	7b16                	ld	s6,352(sp)
ffffffc050204ae0:	6bf6                	ld	s7,344(sp)
ffffffc050204ae2:	6c56                	ld	s8,336(sp)
ffffffc050204ae4:	6cb6                	ld	s9,328(sp)
ffffffc050204ae6:	6d16                	ld	s10,320(sp)
ffffffc050204ae8:	7df2                	ld	s11,312(sp)
ffffffc050204aea:	002a87b3          	add	a5,s5,sp
ffffffc050204aee:	8552                	mv	a0,s4
ffffffc050204af0:	02078823          	sb	zero,48(a5)
ffffffc050204af4:	9982                	jalr	s3
ffffffc050204af6:	60fa                	ld	ra,408(sp)
ffffffc050204af8:	79f6                	ld	s3,376(sp)
ffffffc050204afa:	7a56                	ld	s4,368(sp)
ffffffc050204afc:	8556                	mv	a0,s5
ffffffc050204afe:	7ab6                	ld	s5,360(sp)
ffffffc050204b00:	611d                	addi	sp,sp,416
ffffffc050204b02:	8082                	ret
ffffffc050204b04:	00148793          	addi	a5,s1,1
ffffffc050204b08:	00d48023          	sb	a3,0(s1)
ffffffc050204b0c:	000480a3          	sb	zero,1(s1)
ffffffc050204b10:	41478933          	sub	s2,a5,s4
ffffffc050204b14:	84be                	mv	s1,a5
ffffffc050204b16:	bf11                	j	ffffffc050204a2a <_vprint+0x62>
ffffffc050204b18:	00858893          	addi	a7,a1,8
ffffffc050204b1c:	1e061963          	bnez	a2,ffffffc050204d0e <_vprint+0x346>
ffffffc050204b20:	0005e503          	lwu	a0,0(a1)
ffffffc050204b24:	fa868693          	addi	a3,a3,-88
ffffffc050204b28:	0838                	addi	a4,sp,24
ffffffc050204b2a:	0016b613          	seqz	a2,a3
ffffffc050204b2e:	45c1                	li	a1,16
ffffffc050204b30:	4685                	li	a3,1
ffffffc050204b32:	e446                	sd	a7,8(sp)
ffffffc050204b34:	e03a                	sd	a4,0(sp)
ffffffc050204b36:	d57ff0ef          	jal	ffffffc05020488c <mini_itoa.part.0>
ffffffc050204b3a:	02051613          	slli	a2,a0,0x20
ffffffc050204b3e:	10000793          	li	a5,256
ffffffc050204b42:	9201                	srli	a2,a2,0x20
ffffffc050204b44:	412787b3          	sub	a5,a5,s2
ffffffc050204b48:	6702                	ld	a4,0(sp)
ffffffc050204b4a:	68a2                	ld	a7,8(sp)
ffffffc050204b4c:	1af64e63          	blt	a2,a5,ffffffc050204d08 <_vprint+0x340>
ffffffc050204b50:	0ff00513          	li	a0,255
ffffffc050204b54:	4155053b          	subw	a0,a0,s5
ffffffc050204b58:	02051613          	slli	a2,a0,0x20
ffffffc050204b5c:	9201                	srli	a2,a2,0x20
ffffffc050204b5e:	963a                	add	a2,a2,a4
ffffffc050204b60:	87a6                	mv	a5,s1
ffffffc050204b62:	00074683          	lbu	a3,0(a4)
ffffffc050204b66:	0705                	addi	a4,a4,1
ffffffc050204b68:	0785                	addi	a5,a5,1
ffffffc050204b6a:	fed78fa3          	sb	a3,-1(a5)
ffffffc050204b6e:	fee61ae3          	bne	a2,a4,ffffffc050204b62 <_vprint+0x19a>
ffffffc050204b72:	357d                	addiw	a0,a0,-1
ffffffc050204b74:	1502                	slli	a0,a0,0x20
ffffffc050204b76:	9101                	srli	a0,a0,0x20
ffffffc050204b78:	0485                	addi	s1,s1,1
ffffffc050204b7a:	94aa                	add	s1,s1,a0
ffffffc050204b7c:	41448933          	sub	s2,s1,s4
ffffffc050204b80:	00048023          	sb	zero,0(s1)
ffffffc050204b84:	85c6                	mv	a1,a7
ffffffc050204b86:	b555                	j	ffffffc050204a2a <_vprint+0x62>
ffffffc050204b88:	00858893          	addi	a7,a1,8
ffffffc050204b8c:	18061663          	bnez	a2,ffffffc050204d18 <_vprint+0x350>
ffffffc050204b90:	0005e503          	lwu	a0,0(a1)
ffffffc050204b94:	0838                	addi	a4,sp,24
ffffffc050204b96:	4601                	li	a2,0
ffffffc050204b98:	4685                	li	a3,1
ffffffc050204b9a:	45a9                	li	a1,10
ffffffc050204b9c:	e446                	sd	a7,8(sp)
ffffffc050204b9e:	e03a                	sd	a4,0(sp)
ffffffc050204ba0:	cedff0ef          	jal	ffffffc05020488c <mini_itoa.part.0>
ffffffc050204ba4:	02051613          	slli	a2,a0,0x20
ffffffc050204ba8:	10000793          	li	a5,256
ffffffc050204bac:	9201                	srli	a2,a2,0x20
ffffffc050204bae:	412787b3          	sub	a5,a5,s2
ffffffc050204bb2:	6702                	ld	a4,0(sp)
ffffffc050204bb4:	68a2                	ld	a7,8(sp)
ffffffc050204bb6:	14f64e63          	blt	a2,a5,ffffffc050204d12 <_vprint+0x34a>
ffffffc050204bba:	0ff00513          	li	a0,255
ffffffc050204bbe:	4155053b          	subw	a0,a0,s5
ffffffc050204bc2:	02051613          	slli	a2,a0,0x20
ffffffc050204bc6:	9201                	srli	a2,a2,0x20
ffffffc050204bc8:	963a                	add	a2,a2,a4
ffffffc050204bca:	87a6                	mv	a5,s1
ffffffc050204bcc:	00074683          	lbu	a3,0(a4)
ffffffc050204bd0:	0705                	addi	a4,a4,1
ffffffc050204bd2:	0785                	addi	a5,a5,1
ffffffc050204bd4:	fed78fa3          	sb	a3,-1(a5)
ffffffc050204bd8:	fec71ae3          	bne	a4,a2,ffffffc050204bcc <_vprint+0x204>
ffffffc050204bdc:	bf59                	j	ffffffc050204b72 <_vprint+0x1aa>
ffffffc050204bde:	6198                	ld	a4,0(a1)
ffffffc050204be0:	00858813          	addi	a6,a1,8
ffffffc050204be4:	00074683          	lbu	a3,0(a4)
ffffffc050204be8:	14068a63          	beqz	a3,ffffffc050204d3c <_vprint+0x374>
ffffffc050204bec:	4681                	li	a3,0
ffffffc050204bee:	2685                	addiw	a3,a3,1
ffffffc050204bf0:	02069613          	slli	a2,a3,0x20
ffffffc050204bf4:	9201                	srli	a2,a2,0x20
ffffffc050204bf6:	00c705b3          	add	a1,a4,a2
ffffffc050204bfa:	0005c583          	lbu	a1,0(a1)
ffffffc050204bfe:	f9e5                	bnez	a1,ffffffc050204bee <_vprint+0x226>
ffffffc050204c00:	10000593          	li	a1,256
ffffffc050204c04:	412585b3          	sub	a1,a1,s2
ffffffc050204c08:	10b64e63          	blt	a2,a1,ffffffc050204d24 <_vprint+0x35c>
ffffffc050204c0c:	0ff00893          	li	a7,255
ffffffc050204c10:	415888bb          	subw	a7,a7,s5
ffffffc050204c14:	02089513          	slli	a0,a7,0x20
ffffffc050204c18:	9101                	srli	a0,a0,0x20
ffffffc050204c1a:	8626                	mv	a2,s1
ffffffc050204c1c:	9526                	add	a0,a0,s1
ffffffc050204c1e:	00074583          	lbu	a1,0(a4)
ffffffc050204c22:	0605                	addi	a2,a2,1
ffffffc050204c24:	0705                	addi	a4,a4,1
ffffffc050204c26:	feb60fa3          	sb	a1,-1(a2)
ffffffc050204c2a:	fea61ae3          	bne	a2,a0,ffffffc050204c1e <_vprint+0x256>
ffffffc050204c2e:	38fd                	addiw	a7,a7,-1
ffffffc050204c30:	1882                	slli	a7,a7,0x20
ffffffc050204c32:	0208d893          	srli	a7,a7,0x20
ffffffc050204c36:	0485                	addi	s1,s1,1
ffffffc050204c38:	94c6                	add	s1,s1,a7
ffffffc050204c3a:	00048023          	sb	zero,0(s1)
ffffffc050204c3e:	85c2                	mv	a1,a6
ffffffc050204c40:	41448933          	sub	s2,s1,s4
ffffffc050204c44:	def6f3e3          	bgeu	a3,a5,ffffffc050204a2a <_vprint+0x62>
ffffffc050204c48:	9f95                	subw	a5,a5,a3
ffffffc050204c4a:	02079693          	slli	a3,a5,0x20
ffffffc050204c4e:	10000713          	li	a4,256
ffffffc050204c52:	9281                	srli	a3,a3,0x20
ffffffc050204c54:	41270733          	sub	a4,a4,s2
ffffffc050204c58:	00e6cf63          	blt	a3,a4,ffffffc050204c76 <_vprint+0x2ae>
ffffffc050204c5c:	00090a9b          	sext.w	s5,s2
ffffffc050204c60:	0ff00793          	li	a5,255
ffffffc050204c64:	02fa8963          	beq	s5,a5,ffffffc050204c96 <_vprint+0x2ce>
ffffffc050204c68:	0ff00793          	li	a5,255
ffffffc050204c6c:	415787bb          	subw	a5,a5,s5
ffffffc050204c70:	02079693          	slli	a3,a5,0x20
ffffffc050204c74:	9281                	srli	a3,a3,0x20
ffffffc050204c76:	96a6                	add	a3,a3,s1
ffffffc050204c78:	8726                	mv	a4,s1
ffffffc050204c7a:	02000613          	li	a2,32
ffffffc050204c7e:	00c70023          	sb	a2,0(a4)
ffffffc050204c82:	0705                	addi	a4,a4,1
ffffffc050204c84:	fee69de3          	bne	a3,a4,ffffffc050204c7e <_vprint+0x2b6>
ffffffc050204c88:	37fd                	addiw	a5,a5,-1
ffffffc050204c8a:	1782                	slli	a5,a5,0x20
ffffffc050204c8c:	9381                	srli	a5,a5,0x20
ffffffc050204c8e:	0485                	addi	s1,s1,1
ffffffc050204c90:	94be                	add	s1,s1,a5
ffffffc050204c92:	41448933          	sub	s2,s1,s4
ffffffc050204c96:	00048023          	sb	zero,0(s1)
ffffffc050204c9a:	85c2                	mv	a1,a6
ffffffc050204c9c:	b379                	j	ffffffc050204a2a <_vprint+0x62>
ffffffc050204c9e:	00858893          	addi	a7,a1,8
ffffffc050204ca2:	ee3d                	bnez	a2,ffffffc050204d20 <_vprint+0x358>
ffffffc050204ca4:	4188                	lw	a0,0(a1)
ffffffc050204ca6:	0838                	addi	a4,sp,24
ffffffc050204ca8:	4601                	li	a2,0
ffffffc050204caa:	4681                	li	a3,0
ffffffc050204cac:	45a9                	li	a1,10
ffffffc050204cae:	e446                	sd	a7,8(sp)
ffffffc050204cb0:	e03a                	sd	a4,0(sp)
ffffffc050204cb2:	bdbff0ef          	jal	ffffffc05020488c <mini_itoa.part.0>
ffffffc050204cb6:	02051613          	slli	a2,a0,0x20
ffffffc050204cba:	10000793          	li	a5,256
ffffffc050204cbe:	9201                	srli	a2,a2,0x20
ffffffc050204cc0:	412787b3          	sub	a5,a5,s2
ffffffc050204cc4:	6702                	ld	a4,0(sp)
ffffffc050204cc6:	68a2                	ld	a7,8(sp)
ffffffc050204cc8:	04f64a63          	blt	a2,a5,ffffffc050204d1c <_vprint+0x354>
ffffffc050204ccc:	0ff00513          	li	a0,255
ffffffc050204cd0:	4155053b          	subw	a0,a0,s5
ffffffc050204cd4:	02051613          	slli	a2,a0,0x20
ffffffc050204cd8:	9201                	srli	a2,a2,0x20
ffffffc050204cda:	963a                	add	a2,a2,a4
ffffffc050204cdc:	87a6                	mv	a5,s1
ffffffc050204cde:	00074683          	lbu	a3,0(a4)
ffffffc050204ce2:	0705                	addi	a4,a4,1
ffffffc050204ce4:	0785                	addi	a5,a5,1
ffffffc050204ce6:	fed78fa3          	sb	a3,-1(a5)
ffffffc050204cea:	fec71ae3          	bne	a4,a2,ffffffc050204cde <_vprint+0x316>
ffffffc050204cee:	b551                	j	ffffffc050204b72 <_vprint+0x1aa>
ffffffc050204cf0:	4198                	lw	a4,0(a1)
ffffffc050204cf2:	00148793          	addi	a5,s1,1
ffffffc050204cf6:	000480a3          	sb	zero,1(s1)
ffffffc050204cfa:	00e48023          	sb	a4,0(s1)
ffffffc050204cfe:	05a1                	addi	a1,a1,8
ffffffc050204d00:	41478933          	sub	s2,a5,s4
ffffffc050204d04:	84be                	mv	s1,a5
ffffffc050204d06:	b315                	j	ffffffc050204a2a <_vprint+0x62>
ffffffc050204d08:	e4051be3          	bnez	a0,ffffffc050204b5e <_vprint+0x196>
ffffffc050204d0c:	bd95                	j	ffffffc050204b80 <_vprint+0x1b8>
ffffffc050204d0e:	6188                	ld	a0,0(a1)
ffffffc050204d10:	bd11                	j	ffffffc050204b24 <_vprint+0x15c>
ffffffc050204d12:	ea051be3          	bnez	a0,ffffffc050204bc8 <_vprint+0x200>
ffffffc050204d16:	b5ad                	j	ffffffc050204b80 <_vprint+0x1b8>
ffffffc050204d18:	6188                	ld	a0,0(a1)
ffffffc050204d1a:	bdad                	j	ffffffc050204b94 <_vprint+0x1cc>
ffffffc050204d1c:	fd5d                	bnez	a0,ffffffc050204cda <_vprint+0x312>
ffffffc050204d1e:	b58d                	j	ffffffc050204b80 <_vprint+0x1b8>
ffffffc050204d20:	6188                	ld	a0,0(a1)
ffffffc050204d22:	b751                	j	ffffffc050204ca6 <_vprint+0x2de>
ffffffc050204d24:	88b6                	mv	a7,a3
ffffffc050204d26:	ee0697e3          	bnez	a3,ffffffc050204c14 <_vprint+0x24c>
ffffffc050204d2a:	00048023          	sb	zero,0(s1)
ffffffc050204d2e:	d7b5                	beqz	a5,ffffffc050204c9a <_vprint+0x2d2>
ffffffc050204d30:	02079693          	slli	a3,a5,0x20
ffffffc050204d34:	9281                	srli	a3,a3,0x20
ffffffc050204d36:	f4b6c0e3          	blt	a3,a1,ffffffc050204c76 <_vprint+0x2ae>
ffffffc050204d3a:	b73d                	j	ffffffc050204c68 <_vprint+0x2a0>
ffffffc050204d3c:	0ff00893          	li	a7,255
ffffffc050204d40:	0328c363          	blt	a7,s2,ffffffc050204d66 <_vprint+0x39e>
ffffffc050204d44:	00048023          	sb	zero,0(s1)
ffffffc050204d48:	dba9                	beqz	a5,ffffffc050204c9a <_vprint+0x2d2>
ffffffc050204d4a:	10000713          	li	a4,256
ffffffc050204d4e:	02079693          	slli	a3,a5,0x20
ffffffc050204d52:	41270733          	sub	a4,a4,s2
ffffffc050204d56:	9281                	srli	a3,a3,0x20
ffffffc050204d58:	f0e6cfe3          	blt	a3,a4,ffffffc050204c76 <_vprint+0x2ae>
ffffffc050204d5c:	b731                	j	ffffffc050204c68 <_vprint+0x2a0>
ffffffc050204d5e:	4a81                	li	s5,0
ffffffc050204d60:	03010a13          	addi	s4,sp,48
ffffffc050204d64:	b359                	j	ffffffc050204aea <_vprint+0x122>
ffffffc050204d66:	415888bb          	subw	a7,a7,s5
ffffffc050204d6a:	4681                	li	a3,0
ffffffc050204d6c:	b565                	j	ffffffc050204c14 <_vprint+0x24c>

ffffffc050204d6e <vprintk>:
ffffffc050204d6e:	00000617          	auipc	a2,0x0
ffffffc050204d72:	b0e60613          	addi	a2,a2,-1266 # ffffffc05020487c <_output_wrapper>
ffffffc050204d76:	b989                	j	ffffffc0502049c8 <_vprint>

ffffffc050204d78 <printk>:
ffffffc050204d78:	711d                	addi	sp,sp,-96
ffffffc050204d7a:	02810313          	addi	t1,sp,40
ffffffc050204d7e:	f42e                	sd	a1,40(sp)
ffffffc050204d80:	f832                	sd	a2,48(sp)
ffffffc050204d82:	859a                	mv	a1,t1
ffffffc050204d84:	00000617          	auipc	a2,0x0
ffffffc050204d88:	af860613          	addi	a2,a2,-1288 # ffffffc05020487c <_output_wrapper>
ffffffc050204d8c:	ec06                	sd	ra,24(sp)
ffffffc050204d8e:	fc36                	sd	a3,56(sp)
ffffffc050204d90:	e0ba                	sd	a4,64(sp)
ffffffc050204d92:	e4be                	sd	a5,72(sp)
ffffffc050204d94:	e8c2                	sd	a6,80(sp)
ffffffc050204d96:	ecc6                	sd	a7,88(sp)
ffffffc050204d98:	e41a                	sd	t1,8(sp)
ffffffc050204d9a:	c2fff0ef          	jal	ffffffc0502049c8 <_vprint>
ffffffc050204d9e:	60e2                	ld	ra,24(sp)
ffffffc050204da0:	6125                	addi	sp,sp,96
ffffffc050204da2:	8082                	ret

ffffffc050204da4 <printv>:
ffffffc050204da4:	711d                	addi	sp,sp,-96
ffffffc050204da6:	02810313          	addi	t1,sp,40
ffffffc050204daa:	f42e                	sd	a1,40(sp)
ffffffc050204dac:	f832                	sd	a2,48(sp)
ffffffc050204dae:	859a                	mv	a1,t1
ffffffc050204db0:	00000617          	auipc	a2,0x0
ffffffc050204db4:	aa060613          	addi	a2,a2,-1376 # ffffffc050204850 <bios_putstr>
ffffffc050204db8:	ec06                	sd	ra,24(sp)
ffffffc050204dba:	fc36                	sd	a3,56(sp)
ffffffc050204dbc:	e0ba                	sd	a4,64(sp)
ffffffc050204dbe:	e4be                	sd	a5,72(sp)
ffffffc050204dc0:	e8c2                	sd	a6,80(sp)
ffffffc050204dc2:	ecc6                	sd	a7,88(sp)
ffffffc050204dc4:	e41a                	sd	t1,8(sp)
ffffffc050204dc6:	c03ff0ef          	jal	ffffffc0502049c8 <_vprint>
ffffffc050204dca:	60e2                	ld	ra,24(sp)
ffffffc050204dcc:	6125                	addi	sp,sp,96
ffffffc050204dce:	8082                	ret

ffffffc050204dd0 <printl>:
ffffffc050204dd0:	711d                	addi	sp,sp,-96
ffffffc050204dd2:	02810313          	addi	t1,sp,40
ffffffc050204dd6:	f42e                	sd	a1,40(sp)
ffffffc050204dd8:	f832                	sd	a2,48(sp)
ffffffc050204dda:	859a                	mv	a1,t1
ffffffc050204ddc:	00000617          	auipc	a2,0x0
ffffffc050204de0:	a8a60613          	addi	a2,a2,-1398 # ffffffc050204866 <bios_logging>
ffffffc050204de4:	ec06                	sd	ra,24(sp)
ffffffc050204de6:	fc36                	sd	a3,56(sp)
ffffffc050204de8:	e0ba                	sd	a4,64(sp)
ffffffc050204dea:	e4be                	sd	a5,72(sp)
ffffffc050204dec:	e8c2                	sd	a6,80(sp)
ffffffc050204dee:	ecc6                	sd	a7,88(sp)
ffffffc050204df0:	e41a                	sd	t1,8(sp)
ffffffc050204df2:	bd7ff0ef          	jal	ffffffc0502049c8 <_vprint>
ffffffc050204df6:	60e2                	ld	ra,24(sp)
ffffffc050204df8:	6125                	addi	sp,sp,96
ffffffc050204dfa:	8082                	ret

ffffffc050204dfc <do_getchar>:
ffffffc050204dfc:	1101                	addi	sp,sp,-32
ffffffc050204dfe:	e822                	sd	s0,16(sp)
ffffffc050204e00:	fe029437          	lui	s0,0xfe029
ffffffc050204e04:	0436                	slli	s0,s0,0xd
ffffffc050204e06:	e426                	sd	s1,8(sp)
ffffffc050204e08:	ec06                	sd	ra,24(sp)
ffffffc050204e0a:	f1040413          	addi	s0,s0,-240 # fffffffffe028f10 <__BSS_END__+0x3fade0a6d8>
ffffffc050204e0e:	54fd                	li	s1,-1
ffffffc050204e10:	a019                	j	ffffffc050204e16 <do_getchar+0x1a>
ffffffc050204e12:	b51fe0ef          	jal	ffffffc050203962 <do_scheduler>
ffffffc050204e16:	601c                	ld	a5,0(s0)
ffffffc050204e18:	4701                	li	a4,0
ffffffc050204e1a:	4681                	li	a3,0
ffffffc050204e1c:	4601                	li	a2,0
ffffffc050204e1e:	4581                	li	a1,0
ffffffc050204e20:	4501                	li	a0,0
ffffffc050204e22:	9782                	jalr	a5
ffffffc050204e24:	2501                	sext.w	a0,a0
ffffffc050204e26:	fe9506e3          	beq	a0,s1,ffffffc050204e12 <do_getchar+0x16>
ffffffc050204e2a:	60e2                	ld	ra,24(sp)
ffffffc050204e2c:	6442                	ld	s0,16(sp)
ffffffc050204e2e:	64a2                	ld	s1,8(sp)
ffffffc050204e30:	6105                	addi	sp,sp,32
ffffffc050204e32:	8082                	ret

ffffffc050204e34 <memcpy>:
ffffffc050204e34:	ce01                	beqz	a2,ffffffc050204e4c <memcpy+0x18>
ffffffc050204e36:	1602                	slli	a2,a2,0x20
ffffffc050204e38:	9201                	srli	a2,a2,0x20
ffffffc050204e3a:	962a                	add	a2,a2,a0
ffffffc050204e3c:	0005c783          	lbu	a5,0(a1)
ffffffc050204e40:	0505                	addi	a0,a0,1
ffffffc050204e42:	0585                	addi	a1,a1,1
ffffffc050204e44:	fef50fa3          	sb	a5,-1(a0)
ffffffc050204e48:	fec51ae3          	bne	a0,a2,ffffffc050204e3c <memcpy+0x8>
ffffffc050204e4c:	8082                	ret

ffffffc050204e4e <memset>:
ffffffc050204e4e:	ca09                	beqz	a2,ffffffc050204e60 <memset+0x12>
ffffffc050204e50:	1602                	slli	a2,a2,0x20
ffffffc050204e52:	9201                	srli	a2,a2,0x20
ffffffc050204e54:	962a                	add	a2,a2,a0
ffffffc050204e56:	0505                	addi	a0,a0,1
ffffffc050204e58:	feb50fa3          	sb	a1,-1(a0)
ffffffc050204e5c:	fec51de3          	bne	a0,a2,ffffffc050204e56 <memset+0x8>
ffffffc050204e60:	8082                	ret

ffffffc050204e62 <bzero>:
ffffffc050204e62:	c989                	beqz	a1,ffffffc050204e74 <bzero+0x12>
ffffffc050204e64:	1582                	slli	a1,a1,0x20
ffffffc050204e66:	9181                	srli	a1,a1,0x20
ffffffc050204e68:	95aa                	add	a1,a1,a0
ffffffc050204e6a:	0505                	addi	a0,a0,1
ffffffc050204e6c:	fe050fa3          	sb	zero,-1(a0)
ffffffc050204e70:	feb51de3          	bne	a0,a1,ffffffc050204e6a <bzero+0x8>
ffffffc050204e74:	8082                	ret

ffffffc050204e76 <strlen>:
ffffffc050204e76:	00054783          	lbu	a5,0(a0)
ffffffc050204e7a:	cb99                	beqz	a5,ffffffc050204e90 <strlen+0x1a>
ffffffc050204e7c:	00150793          	addi	a5,a0,1
ffffffc050204e80:	86be                	mv	a3,a5
ffffffc050204e82:	0007c703          	lbu	a4,0(a5)
ffffffc050204e86:	0785                	addi	a5,a5,1
ffffffc050204e88:	ff65                	bnez	a4,ffffffc050204e80 <strlen+0xa>
ffffffc050204e8a:	40a6853b          	subw	a0,a3,a0
ffffffc050204e8e:	8082                	ret
ffffffc050204e90:	4501                	li	a0,0
ffffffc050204e92:	8082                	ret

ffffffc050204e94 <strcmp>:
ffffffc050204e94:	00054703          	lbu	a4,0(a0)
ffffffc050204e98:	eb01                	bnez	a4,ffffffc050204ea8 <strcmp+0x14>
ffffffc050204e9a:	a025                	j	ffffffc050204ec2 <strcmp+0x2e>
ffffffc050204e9c:	00e79b63          	bne	a5,a4,ffffffc050204eb2 <strcmp+0x1e>
ffffffc050204ea0:	00054703          	lbu	a4,0(a0)
ffffffc050204ea4:	cb11                	beqz	a4,ffffffc050204eb8 <strcmp+0x24>
ffffffc050204ea6:	0585                	addi	a1,a1,1
ffffffc050204ea8:	0005c783          	lbu	a5,0(a1)
ffffffc050204eac:	0505                	addi	a0,a0,1
ffffffc050204eae:	f7fd                	bnez	a5,ffffffc050204e9c <strcmp+0x8>
ffffffc050204eb0:	2701                	sext.w	a4,a4
ffffffc050204eb2:	40f7053b          	subw	a0,a4,a5
ffffffc050204eb6:	8082                	ret
ffffffc050204eb8:	0015c783          	lbu	a5,1(a1)
ffffffc050204ebc:	40f7053b          	subw	a0,a4,a5
ffffffc050204ec0:	8082                	ret
ffffffc050204ec2:	0005c783          	lbu	a5,0(a1)
ffffffc050204ec6:	b7f5                	j	ffffffc050204eb2 <strcmp+0x1e>

ffffffc050204ec8 <strncmp>:
ffffffc050204ec8:	c21d                	beqz	a2,ffffffc050204eee <strncmp+0x26>
ffffffc050204eca:	1602                	slli	a2,a2,0x20
ffffffc050204ecc:	9201                	srli	a2,a2,0x20
ffffffc050204ece:	962a                	add	a2,a2,a0
ffffffc050204ed0:	a031                	j	ffffffc050204edc <strncmp+0x14>
ffffffc050204ed2:	0585                	addi	a1,a1,1
ffffffc050204ed4:	00e79f63          	bne	a5,a4,ffffffc050204ef2 <strncmp+0x2a>
ffffffc050204ed8:	00c50b63          	beq	a0,a2,ffffffc050204eee <strncmp+0x26>
ffffffc050204edc:	00054783          	lbu	a5,0(a0)
ffffffc050204ee0:	0005c703          	lbu	a4,0(a1)
ffffffc050204ee4:	0505                	addi	a0,a0,1
ffffffc050204ee6:	f7f5                	bnez	a5,ffffffc050204ed2 <strncmp+0xa>
ffffffc050204ee8:	4501                	li	a0,0
ffffffc050204eea:	9d19                	subw	a0,a0,a4
ffffffc050204eec:	8082                	ret
ffffffc050204eee:	4501                	li	a0,0
ffffffc050204ef0:	8082                	ret
ffffffc050204ef2:	0007851b          	sext.w	a0,a5
ffffffc050204ef6:	9d19                	subw	a0,a0,a4
ffffffc050204ef8:	8082                	ret

ffffffc050204efa <strcpy>:
ffffffc050204efa:	0005c783          	lbu	a5,0(a1)
ffffffc050204efe:	872a                	mv	a4,a0
ffffffc050204f00:	cb81                	beqz	a5,ffffffc050204f10 <strcpy+0x16>
ffffffc050204f02:	0585                	addi	a1,a1,1
ffffffc050204f04:	00f70023          	sb	a5,0(a4)
ffffffc050204f08:	0005c783          	lbu	a5,0(a1)
ffffffc050204f0c:	0705                	addi	a4,a4,1
ffffffc050204f0e:	fbf5                	bnez	a5,ffffffc050204f02 <strcpy+0x8>
ffffffc050204f10:	00070023          	sb	zero,0(a4)
ffffffc050204f14:	8082                	ret

ffffffc050204f16 <strncpy>:
ffffffc050204f16:	0005c683          	lbu	a3,0(a1)
ffffffc050204f1a:	88b2                	mv	a7,a2
ffffffc050204f1c:	87aa                	mv	a5,a0
ffffffc050204f1e:	c685                	beqz	a3,ffffffc050204f46 <strncpy+0x30>
ffffffc050204f20:	fff6081b          	addiw	a6,a2,-1
ffffffc050204f24:	0105083b          	addw	a6,a0,a6
ffffffc050204f28:	9e29                	addw	a2,a2,a0
ffffffc050204f2a:	a039                	j	ffffffc050204f38 <strncpy+0x22>
ffffffc050204f2c:	00d78023          	sb	a3,0(a5)
ffffffc050204f30:	0005c683          	lbu	a3,0(a1)
ffffffc050204f34:	0785                	addi	a5,a5,1
ffffffc050204f36:	ca81                	beqz	a3,ffffffc050204f46 <strncpy+0x30>
ffffffc050204f38:	40f6073b          	subw	a4,a2,a5
ffffffc050204f3c:	0585                	addi	a1,a1,1
ffffffc050204f3e:	40f808bb          	subw	a7,a6,a5
ffffffc050204f42:	fee045e3          	bgtz	a4,ffffffc050204f2c <strncpy+0x16>
ffffffc050204f46:	02089713          	slli	a4,a7,0x20
ffffffc050204f4a:	9301                	srli	a4,a4,0x20
ffffffc050204f4c:	973e                	add	a4,a4,a5
ffffffc050204f4e:	01105863          	blez	a7,ffffffc050204f5e <strncpy+0x48>
ffffffc050204f52:	0785                	addi	a5,a5,1
ffffffc050204f54:	fe078fa3          	sb	zero,-1(a5)
ffffffc050204f58:	fef71de3          	bne	a4,a5,ffffffc050204f52 <strncpy+0x3c>
ffffffc050204f5c:	8082                	ret
ffffffc050204f5e:	8082                	ret

ffffffc050204f60 <strcat>:
ffffffc050204f60:	00054783          	lbu	a5,0(a0)
ffffffc050204f64:	c39d                	beqz	a5,ffffffc050204f8a <strcat+0x2a>
ffffffc050204f66:	87aa                	mv	a5,a0
ffffffc050204f68:	0017c703          	lbu	a4,1(a5)
ffffffc050204f6c:	0785                	addi	a5,a5,1
ffffffc050204f6e:	ff6d                	bnez	a4,ffffffc050204f68 <strcat+0x8>
ffffffc050204f70:	0005c703          	lbu	a4,0(a1)
ffffffc050204f74:	cb01                	beqz	a4,ffffffc050204f84 <strcat+0x24>
ffffffc050204f76:	0785                	addi	a5,a5,1
ffffffc050204f78:	0585                	addi	a1,a1,1
ffffffc050204f7a:	fee78fa3          	sb	a4,-1(a5)
ffffffc050204f7e:	0005c703          	lbu	a4,0(a1)
ffffffc050204f82:	fb75                	bnez	a4,ffffffc050204f76 <strcat+0x16>
ffffffc050204f84:	00078023          	sb	zero,0(a5)
ffffffc050204f88:	8082                	ret
ffffffc050204f8a:	87aa                	mv	a5,a0
ffffffc050204f8c:	bfcd                	j	ffffffc050204f7e <strcat+0x1e>
