
build/main:     file format elf64-littleriscv


Disassembly of section .text:

0000000050201000 <_start>:
    50201000:	10401073          	csrw	sie,zero
    50201004:	14401073          	csrw	sip,zero
    50201008:	00004417          	auipc	s0,0x4
    5020100c:	8c440413          	addi	s0,s0,-1852 # 502048cc <__bss_start>
    50201010:	0000f497          	auipc	s1,0xf
    50201014:	49048493          	addi	s1,s1,1168 # 502104a0 <__BSS_END__>

0000000050201018 <clear_bss_loop>:
    50201018:	00947663          	bgeu	s0,s1,50201024 <bss_done>
    5020101c:	00042023          	sw	zero,0(s0)
    50201020:	0411                	addi	s0,s0,4
    50201022:	bfdd                	j	50201018 <clear_bss_loop>

0000000050201024 <bss_done>:
    50201024:	50500137          	lui	sp,0x50500
    50201028:	00a0006f          	j	50201032 <main>

000000005020102c <loop>:
    5020102c:	10500073          	wfi
    50201030:	bff5                	j	5020102c <loop>

0000000050201032 <main>:
    50201032:	711d                	addi	sp,sp,-96
    50201034:	f852                	sd	s4,48(sp)
    50201036:	f456                	sd	s5,40(sp)
    50201038:	f05a                	sd	s6,32(sp)
    5020103a:	ec5e                	sd	s7,24(sp)
    5020103c:	e862                	sd	s8,16(sp)
    5020103e:	e466                	sd	s9,8(sp)
    50201040:	ec86                	sd	ra,88(sp)
    50201042:	e8a2                	sd	s0,80(sp)
    50201044:	e4a6                	sd	s1,72(sp)
    50201046:	e0ca                	sd	s2,64(sp)
    50201048:	fc4e                	sd	s3,56(sp)
    5020104a:	520008b7          	lui	a7,0x52000
    5020104e:	00000297          	auipc	t0,0x0
    50201052:	6a028293          	addi	t0,t0,1696 # 502016ee <port_write>
    50201056:	f058b023          	sd	t0,-256(a7) # 51ffff00 <__BSS_END__+0x1defa60>
    5020105a:	00000297          	auipc	t0,0x0
    5020105e:	68028293          	addi	t0,t0,1664 # 502016da <port_write_ch>
    50201062:	f058b423          	sd	t0,-248(a7)
    50201066:	00000297          	auipc	t0,0x0
    5020106a:	69c28293          	addi	t0,t0,1692 # 50201702 <port_read_ch>
    5020106e:	f058b823          	sd	t0,-240(a7)
    50201072:	00000297          	auipc	t0,0x0
    50201076:	6b228293          	addi	t0,t0,1714 # 50201724 <sd_read>
    5020107a:	f058bc23          	sd	t0,-232(a7)
    5020107e:	00000297          	auipc	t0,0x0
    50201082:	6ce28293          	addi	t0,t0,1742 # 5020174c <sd_write>
    50201086:	fff5079b          	addiw	a5,a0,-1
    5020108a:	f258b023          	sd	t0,-224(a7)
    5020108e:	00000297          	auipc	t0,0x0
    50201092:	71228293          	addi	t0,t0,1810 # 502017a0 <qemu_logging>
    50201096:	17c2                	slli	a5,a5,0x30
    50201098:	f258b423          	sd	t0,-216(a7)
    5020109c:	00000f97          	auipc	t6,0x0
    502010a0:	6ecf8f93          	addi	t6,t6,1772 # 50201788 <read_fdt>
    502010a4:	00000297          	auipc	t0,0x0
    502010a8:	6d028293          	addi	t0,t0,1744 # 50201774 <set_timer>
    502010ac:	00000c17          	auipc	s8,0x0
    502010b0:	7bec0c13          	addi	s8,s8,1982 # 5020186a <screen_move_cursor>
    502010b4:	00002f17          	auipc	t5,0x2
    502010b8:	1f0f0f13          	addi	t5,t5,496 # 502032a4 <printk>
    502010bc:	00001c97          	auipc	s9,0x1
    502010c0:	f20c8c93          	addi	s9,s9,-224 # 50201fdc <do_scheduler>
    502010c4:	00001b17          	auipc	s6,0x1
    502010c8:	cd0b0b13          	addi	s6,s6,-816 # 50201d94 <do_mutex_lock_init>
    502010cc:	00001a97          	auipc	s5,0x1
    502010d0:	d36a8a93          	addi	s5,s5,-714 # 50201e02 <do_mutex_lock_acquire>
    502010d4:	00001a17          	auipc	s4,0x1
    502010d8:	daca0a13          	addi	s4,s4,-596 # 50201e80 <do_mutex_lock_release>
    502010dc:	00001b97          	auipc	s7,0x1
    502010e0:	800b8b93          	addi	s7,s7,-2048 # 502018dc <screen_reflush>
    502010e4:	93c1                	srli	a5,a5,0x30
    502010e6:	f258b823          	sd	t0,-208(a7)
    502010ea:	f3f8bc23          	sd	t6,-200(a7)
    502010ee:	f588b023          	sd	s8,-192(a7)
    502010f2:	f5e8b423          	sd	t5,-184(a7)
    502010f6:	f598b823          	sd	s9,-176(a7)
    502010fa:	f568bc23          	sd	s6,-168(a7)
    502010fe:	f758b023          	sd	s5,-160(a7)
    50201102:	f748b423          	sd	s4,-152(a7)
    50201106:	fb78bc23          	sd	s7,-72(a7)
    5020110a:	473d                	li	a4,15
    5020110c:	04f76263          	bltu	a4,a5,50201150 <main+0x11e>
    50201110:	0105179b          	slliw	a5,a0,0x10
    50201114:	03000713          	li	a4,48
    50201118:	4107d79b          	sraiw	a5,a5,0x10
    5020111c:	02e787b3          	mul	a5,a5,a4
    50201120:	0105961b          	slliw	a2,a1,0x10
    50201124:	4106561b          	sraiw	a2,a2,0x10
    50201128:	00003517          	auipc	a0,0x3
    5020112c:	7c050513          	addi	a0,a0,1984 # 502048e8 <tasks>
    50201130:	1602                	slli	a2,a2,0x20
    50201132:	1502                	slli	a0,a0,0x20
    50201134:	9201                	srli	a2,a2,0x20
    50201136:	9101                	srli	a0,a0,0x20
    50201138:	4701                	li	a4,0
    5020113a:	4681                	li	a3,0
    5020113c:	1f07f593          	andi	a1,a5,496
    50201140:	00b035b3          	snez	a1,a1
    50201144:	83a5                	srli	a5,a5,0x9
    50201146:	9dbd                	addw	a1,a1,a5
    50201148:	1582                	slli	a1,a1,0x20
    5020114a:	9181                	srli	a1,a1,0x20
    5020114c:	5d8000ef          	jal	50201724 <sd_read>
    50201150:	00003997          	auipc	s3,0x3
    50201154:	73098993          	addi	s3,s3,1840 # 50204880 <ready_queue>
    50201158:	00003797          	auipc	a5,0x3
    5020115c:	73878793          	addi	a5,a5,1848 # 50204890 <sleep_queue>
    50201160:	0139b023          	sd	s3,0(s3)
    50201164:	0139b423          	sd	s3,8(s3)
    50201168:	e39c                	sd	a5,0(a5)
    5020116a:	e79c                	sd	a5,8(a5)
    5020116c:	0000e417          	auipc	s0,0xe
    50201170:	d3440413          	addi	s0,s0,-716 # 5020eea0 <pcb>
    50201174:	0000e917          	auipc	s2,0xe
    50201178:	32c90913          	addi	s2,s2,812 # 5020f4a0 <barriers>
    5020117c:	54fd                	li	s1,-1
    5020117e:	8522                	mv	a0,s0
    50201180:	06000613          	li	a2,96
    50201184:	4581                	li	a1,0
    50201186:	1f2020ef          	jal	50203378 <memset>
    5020118a:	06040413          	addi	s0,s0,96
    5020118e:	fe942023          	sw	s1,-32(s0)
    50201192:	fe8916e3          	bne	s2,s0,5020117e <main+0x14c>
    50201196:	00003797          	auipc	a5,0x3
    5020119a:	7327a783          	lw	a5,1842(a5) # 502048c8 <process_id>
    5020119e:	00002517          	auipc	a0,0x2
    502011a2:	31a50513          	addi	a0,a0,794 # 502034b8 <strcat+0x2e>
    502011a6:	0017871b          	addiw	a4,a5,1
    502011aa:	0000e697          	auipc	a3,0xe
    502011ae:	d8f6ab23          	sw	a5,-618(a3) # 5020ef40 <pcb+0xa0>
    502011b2:	00003797          	auipc	a5,0x3
    502011b6:	70e7ab23          	sw	a4,1814(a5) # 502048c8 <process_id>
    502011ba:	247000ef          	jal	50201c00 <load_task_img>
    502011be:	842a                	mv	s0,a0
    502011c0:	30050163          	beqz	a0,502014c2 <main+0x490>
    502011c4:	4505                	li	a0,1
    502011c6:	5cb000ef          	jal	50201f90 <allocKernelPage>
    502011ca:	84aa                	mv	s1,a0
    502011cc:	4505                	li	a0,1
    502011ce:	5e9000ef          	jal	50201fb6 <allocUserPage>
    502011d2:	6785                	lui	a5,0x1
    502011d4:	00f505b3          	add	a1,a0,a5
    502011d8:	00f48533          	add	a0,s1,a5
    502011dc:	4789                	li	a5,2
    502011de:	0000e717          	auipc	a4,0xe
    502011e2:	d6f72523          	sw	a5,-662(a4) # 5020ef48 <pcb+0xa8>
    502011e6:	8622                	mv	a2,s0
    502011e8:	4781                	li	a5,0
    502011ea:	4701                	li	a4,0
    502011ec:	0000e697          	auipc	a3,0xe
    502011f0:	d1468693          	addi	a3,a3,-748 # 5020ef00 <pcb+0x60>
    502011f4:	0000e817          	auipc	a6,0xe
    502011f8:	d4083e23          	sd	zero,-676(a6) # 5020ef50 <pcb+0xb0>
    502011fc:	460000ef          	jal	5020165c <init_pcb_stack>
    50201200:	0089b783          	ld	a5,8(s3)
    50201204:	0000e717          	auipc	a4,0xe
    50201208:	d1c70713          	addi	a4,a4,-740 # 5020ef20 <pcb+0x80>
    5020120c:	00003697          	auipc	a3,0x3
    50201210:	69c6b683          	ld	a3,1692(a3) # 502048a8 <pid0_stack>
    50201214:	00e9b423          	sd	a4,8(s3)
    50201218:	0000e617          	auipc	a2,0xe
    5020121c:	d0f63823          	sd	a5,-752(a2) # 5020ef28 <pcb+0x88>
    50201220:	0000e617          	auipc	a2,0xe
    50201224:	d1363023          	sd	s3,-768(a2) # 5020ef20 <pcb+0x80>
    50201228:	e398                	sd	a4,0(a5)
    5020122a:	00003797          	auipc	a5,0x3
    5020122e:	5ed7bb23          	sd	a3,1526(a5) # 50204820 <pid0_pcb>
    50201232:	4785                	li	a5,1
    50201234:	00003717          	auipc	a4,0x3
    50201238:	62f72a23          	sw	a5,1588(a4) # 50204868 <pid0_pcb+0x48>
    5020123c:	00003797          	auipc	a5,0x3
    50201240:	60478793          	addi	a5,a5,1540 # 50204840 <pid0_pcb+0x20>
    50201244:	00003217          	auipc	tp,0x3
    50201248:	5dc20213          	addi	tp,tp,1500 # 50204820 <pid0_pcb>
    5020124c:	00003717          	auipc	a4,0x3
    50201250:	60072a23          	sw	zero,1556(a4) # 50204860 <pid0_pcb+0x40>
    50201254:	00003717          	auipc	a4,0x3
    50201258:	5ef73623          	sd	a5,1516(a4) # 50204840 <pid0_pcb+0x20>
    5020125c:	00003717          	auipc	a4,0x3
    50201260:	5ef73623          	sd	a5,1516(a4) # 50204848 <pid0_pcb+0x28>
    50201264:	8212                	mv	tp,tp
    50201266:	520007b7          	lui	a5,0x52000
    5020126a:	f3878793          	addi	a5,a5,-200 # 51ffff38 <__BSS_END__+0x1defa98>
    5020126e:	639c                	ld	a5,0(a5)
    50201270:	4701                	li	a4,0
    50201272:	4681                	li	a3,0
    50201274:	4601                	li	a2,0
    50201276:	4581                	li	a1,0
    50201278:	4501                	li	a0,0
    5020127a:	9782                	jalr	a5
    5020127c:	00003797          	auipc	a5,0x3
    50201280:	64a7be23          	sd	a0,1628(a5) # 502048d8 <time_base>
    50201284:	2a3000ef          	jal	50201d26 <init_locks>
    50201288:	2b6010ef          	jal	5020253e <init_barriers>
    5020128c:	3fc010ef          	jal	50202688 <init_conditions>
    50201290:	00002517          	auipc	a0,0x2
    50201294:	26050513          	addi	a0,a0,608 # 502034f0 <strcat+0x66>
    50201298:	00c020ef          	jal	502032a4 <printk>
    5020129c:	00002517          	auipc	a0,0x2
    502012a0:	27c50513          	addi	a0,a0,636 # 50203518 <strcat+0x8e>
    502012a4:	000020ef          	jal	502032a4 <printk>
    502012a8:	000407b7          	lui	a5,0x40
    502012ac:	1007a073          	csrs	sstatus,a5
    502012b0:	0cf000ef          	jal	50201b7e <init_exception>
    502012b4:	00002517          	auipc	a0,0x2
    502012b8:	29c50513          	addi	a0,a0,668 # 50203550 <strcat+0xc6>
    502012bc:	7e9010ef          	jal	502032a4 <printk>
    502012c0:	0000f517          	auipc	a0,0xf
    502012c4:	03653023          	sd	s6,32(a0) # 502102e0 <syscall+0x140>
    502012c8:	0000f797          	auipc	a5,0xf
    502012cc:	f197b823          	sd	s9,-240(a5) # 502101d8 <syscall+0x38>
    502012d0:	0000f797          	auipc	a5,0xf
    502012d4:	f987b023          	sd	s8,-128(a5) # 50210250 <syscall+0xb0>
    502012d8:	0000f797          	auipc	a5,0xf
    502012dc:	f977b023          	sd	s7,-128(a5) # 50210258 <syscall+0xb8>
    502012e0:	00001f17          	auipc	t5,0x1
    502012e4:	d7af0f13          	addi	t5,t5,-646 # 5020205a <do_sleep>
    502012e8:	00000e97          	auipc	t4,0x0
    502012ec:	5c6e8e93          	addi	t4,t4,1478 # 502018ae <screen_write>
    502012f0:	00002e17          	auipc	t3,0x2
    502012f4:	9aee0e13          	addi	t3,t3,-1618 # 50202c9e <get_time_base>
    502012f8:	00002317          	auipc	t1,0x2
    502012fc:	97e30313          	addi	t1,t1,-1666 # 50202c76 <get_ticks>
    50201300:	00001897          	auipc	a7,0x1
    50201304:	df088893          	addi	a7,a7,-528 # 502020f0 <do_exec>
    50201308:	00001817          	auipc	a6,0x1
    5020130c:	fec80813          	addi	a6,a6,-20 # 502022f4 <do_exit>
    50201310:	00001597          	auipc	a1,0x1
    50201314:	02a58593          	addi	a1,a1,42 # 5020233a <do_kill>
    50201318:	00001617          	auipc	a2,0x1
    5020131c:	0e860613          	addi	a2,a2,232 # 50202400 <do_waitpid>
    50201320:	00001697          	auipc	a3,0x1
    50201324:	19068693          	addi	a3,a3,400 # 502024b0 <do_process_show>
    50201328:	00001717          	auipc	a4,0x1
    5020132c:	21070713          	addi	a4,a4,528 # 50202538 <do_getpid>
    50201330:	00000797          	auipc	a5,0x0
    50201334:	30a78793          	addi	a5,a5,778 # 5020163a <bios_getchar>
    50201338:	00000517          	auipc	a0,0x0
    5020133c:	67250513          	addi	a0,a0,1650 # 502019aa <screen_clear>
    50201340:	0000ff97          	auipc	t6,0xf
    50201344:	fb5fb423          	sd	s5,-88(t6) # 502102e8 <syscall+0x148>
    50201348:	0000ff97          	auipc	t6,0xf
    5020134c:	fb4fb423          	sd	s4,-88(t6) # 502102f0 <syscall+0x150>
    50201350:	00000297          	auipc	t0,0x0
    50201354:	47828293          	addi	t0,t0,1144 # 502017c8 <screen_write_ch>
    50201358:	00001f97          	auipc	t6,0x1
    5020135c:	210f8f93          	addi	t6,t6,528 # 50202568 <do_barrier_init>
    50201360:	0000f397          	auipc	t2,0xf
    50201364:	e5e3b823          	sd	t5,-432(t2) # 502101b0 <syscall+0x10>
    50201368:	0000f397          	auipc	t2,0xf
    5020136c:	edd3bc23          	sd	t4,-296(t2) # 50210240 <syscall+0xa0>
    50201370:	00001f17          	auipc	t5,0x1
    50201374:	260f0f13          	addi	t5,t5,608 # 502025d0 <do_barrier_wait>
    50201378:	00001e97          	auipc	t4,0x1
    5020137c:	2e8e8e93          	addi	t4,t4,744 # 50202660 <do_barrier_destroy>
    50201380:	0000f397          	auipc	t2,0xf
    50201384:	f1c3b823          	sd	t3,-240(t2) # 50210290 <syscall+0xf0>
    50201388:	0000f397          	auipc	t2,0xf
    5020138c:	f063b823          	sd	t1,-240(t2) # 50210298 <syscall+0xf8>
    50201390:	00001e17          	auipc	t3,0x1
    50201394:	31ae0e13          	addi	t3,t3,794 # 502026aa <do_condition_init>
    50201398:	00001317          	auipc	t1,0x1
    5020139c:	37230313          	addi	t1,t1,882 # 5020270a <do_condition_wait>
    502013a0:	0000f397          	auipc	t2,0xf
    502013a4:	e113b023          	sd	a7,-512(t2) # 502101a0 <syscall>
    502013a8:	0000f397          	auipc	t2,0xf
    502013ac:	e103b023          	sd	a6,-512(t2) # 502101a8 <syscall+0x8>
    502013b0:	00001897          	auipc	a7,0x1
    502013b4:	3b288893          	addi	a7,a7,946 # 50202762 <do_condition_signal>
    502013b8:	00001817          	auipc	a6,0x1
    502013bc:	40080813          	addi	a6,a6,1024 # 502027b8 <do_condition_broadcast>
    502013c0:	0000f397          	auipc	t2,0xf
    502013c4:	deb3bc23          	sd	a1,-520(t2) # 502101b8 <syscall+0x18>
    502013c8:	0000f397          	auipc	t2,0xf
    502013cc:	dec3bc23          	sd	a2,-520(t2) # 502101c0 <syscall+0x20>
    502013d0:	00001597          	auipc	a1,0x1
    502013d4:	44658593          	addi	a1,a1,1094 # 50202816 <do_condition_destroy>
    502013d8:	00001617          	auipc	a2,0x1
    502013dc:	4a860613          	addi	a2,a2,1192 # 50202880 <do_mbox_open>
    502013e0:	0000f397          	auipc	t2,0xf
    502013e4:	ded3b423          	sd	a3,-536(t2) # 502101c8 <syscall+0x28>
    502013e8:	0000f397          	auipc	t2,0xf
    502013ec:	dee3b423          	sd	a4,-536(t2) # 502101d0 <syscall+0x30>
    502013f0:	00001697          	auipc	a3,0x1
    502013f4:	59868693          	addi	a3,a3,1432 # 50202988 <do_mbox_close>
    502013f8:	00001717          	auipc	a4,0x1
    502013fc:	5ea70713          	addi	a4,a4,1514 # 502029e2 <do_mbox_send>
    50201400:	0000f397          	auipc	t2,0xf
    50201404:	e4f3b423          	sd	a5,-440(t2) # 50210248 <syscall+0xa8>
    50201408:	0000f397          	auipc	t2,0xf
    5020140c:	e4a3bc23          	sd	a0,-424(t2) # 50210260 <syscall+0xc0>
    50201410:	00001797          	auipc	a5,0x1
    50201414:	72a78793          	addi	a5,a5,1834 # 50202b3a <do_mbox_recv>
    50201418:	00002517          	auipc	a0,0x2
    5020141c:	17850513          	addi	a0,a0,376 # 50203590 <strcat+0x106>
    50201420:	0000f397          	auipc	t2,0xf
    50201424:	f453b423          	sd	t0,-184(t2) # 50210368 <syscall+0x1c8>
    50201428:	0000f297          	auipc	t0,0xf
    5020142c:	edf2bc23          	sd	t6,-296(t0) # 50210300 <syscall+0x160>
    50201430:	0000ff97          	auipc	t6,0xf
    50201434:	edefbc23          	sd	t5,-296(t6) # 50210308 <syscall+0x168>
    50201438:	0000ff17          	auipc	t5,0xf
    5020143c:	eddf3c23          	sd	t4,-296(t5) # 50210310 <syscall+0x170>
    50201440:	0000fe97          	auipc	t4,0xf
    50201444:	edcebc23          	sd	t3,-296(t4) # 50210318 <syscall+0x178>
    50201448:	0000fe17          	auipc	t3,0xf
    5020144c:	ec6e3c23          	sd	t1,-296(t3) # 50210320 <syscall+0x180>
    50201450:	0000f317          	auipc	t1,0xf
    50201454:	ed133c23          	sd	a7,-296(t1) # 50210328 <syscall+0x188>
    50201458:	0000f897          	auipc	a7,0xf
    5020145c:	ed08bc23          	sd	a6,-296(a7) # 50210330 <syscall+0x190>
    50201460:	0000f817          	auipc	a6,0xf
    50201464:	ecb83c23          	sd	a1,-296(a6) # 50210338 <syscall+0x198>
    50201468:	0000f597          	auipc	a1,0xf
    5020146c:	ecc5bc23          	sd	a2,-296(a1) # 50210340 <syscall+0x1a0>
    50201470:	0000f617          	auipc	a2,0xf
    50201474:	ecd63c23          	sd	a3,-296(a2) # 50210348 <syscall+0x1a8>
    50201478:	0000f697          	auipc	a3,0xf
    5020147c:	ece6bc23          	sd	a4,-296(a3) # 50210350 <syscall+0x1b0>
    50201480:	0000f717          	auipc	a4,0xf
    50201484:	ecf73c23          	sd	a5,-296(a4) # 50210358 <syscall+0x1b8>
    50201488:	61d010ef          	jal	502032a4 <printk>
    5020148c:	582000ef          	jal	50201a0e <init_screen>
    50201490:	00002517          	auipc	a0,0x2
    50201494:	13050513          	addi	a0,a0,304 # 502035c0 <strcat+0x136>
    50201498:	60d010ef          	jal	502032a4 <printk>
    5020149c:	7da010ef          	jal	50202c76 <get_ticks>
    502014a0:	520007b7          	lui	a5,0x52000
    502014a4:	f3078793          	addi	a5,a5,-208 # 51ffff30 <__BSS_END__+0x1defa90>
    502014a8:	639c                	ld	a5,0(a5)
    502014aa:	09650513          	addi	a0,a0,150
    502014ae:	4701                	li	a4,0
    502014b0:	4681                	li	a3,0
    502014b2:	4601                	li	a2,0
    502014b4:	4581                	li	a1,0
    502014b6:	9782                	jalr	a5
    502014b8:	020000ef          	jal	502014d8 <enable_preempt>
    502014bc:	10500073          	wfi
    502014c0:	bfe5                	j	502014b8 <main+0x486>
    502014c2:	00002597          	auipc	a1,0x2
    502014c6:	ff658593          	addi	a1,a1,-10 # 502034b8 <strcat+0x2e>
    502014ca:	00002517          	auipc	a0,0x2
    502014ce:	ffe50513          	addi	a0,a0,-2 # 502034c8 <strcat+0x3e>
    502014d2:	5d3010ef          	jal	502032a4 <printk>
    502014d6:	b1fd                	j	502011c4 <main+0x192>

00000000502014d8 <enable_preempt>:
    502014d8:	fff04293          	not	t0,zero
    502014dc:	1042a073          	csrs	sie,t0
    502014e0:	8082                	ret
    502014e2:	0001                	nop

00000000502014e4 <disable_preempt>:
    502014e4:	10401073          	csrw	sie,zero
    502014e8:	8082                	ret
    502014ea:	0001                	nop

00000000502014ec <enable_interrupt>:
    502014ec:	4289                	li	t0,2
    502014ee:	1002a073          	csrs	sstatus,t0
    502014f2:	8082                	ret

00000000502014f4 <disable_interrupt>:
    502014f4:	4289                	li	t0,2
    502014f6:	1002b073          	csrc	sstatus,t0
    502014fa:	8082                	ret

00000000502014fc <switch_to>:
    502014fc:	7159                	addi	sp,sp,-112
    502014fe:	e006                	sd	ra,0(sp)
    50201500:	e822                	sd	s0,16(sp)
    50201502:	ec26                	sd	s1,24(sp)
    50201504:	f04a                	sd	s2,32(sp)
    50201506:	f44e                	sd	s3,40(sp)
    50201508:	f852                	sd	s4,48(sp)
    5020150a:	fc56                	sd	s5,56(sp)
    5020150c:	e0da                	sd	s6,64(sp)
    5020150e:	e4de                	sd	s7,72(sp)
    50201510:	e8e2                	sd	s8,80(sp)
    50201512:	ece6                	sd	s9,88(sp)
    50201514:	f0ea                	sd	s10,96(sp)
    50201516:	f4ee                	sd	s11,104(sp)
    50201518:	00253023          	sd	sp,0(a0)
    5020151c:	0005b103          	ld	sp,0(a1)
    50201520:	6082                	ld	ra,0(sp)
    50201522:	6442                	ld	s0,16(sp)
    50201524:	64e2                	ld	s1,24(sp)
    50201526:	7902                	ld	s2,32(sp)
    50201528:	79a2                	ld	s3,40(sp)
    5020152a:	7a42                	ld	s4,48(sp)
    5020152c:	7ae2                	ld	s5,56(sp)
    5020152e:	6b06                	ld	s6,64(sp)
    50201530:	6ba6                	ld	s7,72(sp)
    50201532:	6c46                	ld	s8,80(sp)
    50201534:	6ce6                	ld	s9,88(sp)
    50201536:	7d06                	ld	s10,96(sp)
    50201538:	7da6                	ld	s11,104(sp)
    5020153a:	6165                	addi	sp,sp,112
    5020153c:	822e                	mv	tp,a1
    5020153e:	8082                	ret

0000000050201540 <ret_from_exception>:
    50201540:	00013003          	ld	zero,0(sp) # 50500000 <__BSS_END__+0x2efb60>
    50201544:	60a2                	ld	ra,8(sp)
    50201546:	7202                	ld	tp,32(sp)
    50201548:	72a2                	ld	t0,40(sp)
    5020154a:	7342                	ld	t1,48(sp)
    5020154c:	73e2                	ld	t2,56(sp)
    5020154e:	6406                	ld	s0,64(sp)
    50201550:	64a6                	ld	s1,72(sp)
    50201552:	6546                	ld	a0,80(sp)
    50201554:	65e6                	ld	a1,88(sp)
    50201556:	7606                	ld	a2,96(sp)
    50201558:	76a6                	ld	a3,104(sp)
    5020155a:	7746                	ld	a4,112(sp)
    5020155c:	77e6                	ld	a5,120(sp)
    5020155e:	680a                	ld	a6,128(sp)
    50201560:	68aa                	ld	a7,136(sp)
    50201562:	694a                	ld	s2,144(sp)
    50201564:	69ea                	ld	s3,152(sp)
    50201566:	7a0a                	ld	s4,160(sp)
    50201568:	7aaa                	ld	s5,168(sp)
    5020156a:	7b4a                	ld	s6,176(sp)
    5020156c:	7bea                	ld	s7,184(sp)
    5020156e:	6c0e                	ld	s8,192(sp)
    50201570:	6cae                	ld	s9,200(sp)
    50201572:	6d4e                	ld	s10,208(sp)
    50201574:	6dee                	ld	s11,216(sp)
    50201576:	6e12                	ld	t3,256(sp)
    50201578:	6eb2                	ld	t4,264(sp)
    5020157a:	6f52                	ld	t5,272(sp)
    5020157c:	6ff2                	ld	t6,280(sp)
    5020157e:	100e1073          	csrw	sstatus,t3
    50201582:	7e0e                	ld	t3,224(sp)
    50201584:	141e9073          	csrw	sepc,t4
    50201588:	7eae                	ld	t4,232(sp)
    5020158a:	143f1073          	csrw	stval,t5
    5020158e:	7f4e                	ld	t5,240(sp)
    50201590:	142f9073          	csrw	scause,t6
    50201594:	7fee                	ld	t6,248(sp)
    50201596:	6115                	addi	sp,sp,288
    50201598:	00223023          	sd	sp,0(tp) # 0 <_start-0x50201000>
    5020159c:	00823103          	ld	sp,8(tp) # 8 <_start-0x50200ff8>
    502015a0:	10200073          	sret

00000000502015a4 <exception_handler_entry>:
    502015a4:	00223423          	sd	sp,8(tp) # 8 <_start-0x50200ff8>
    502015a8:	00023103          	ld	sp,0(tp) # 0 <_start-0x50201000>
    502015ac:	712d                	addi	sp,sp,-288
    502015ae:	e002                	sd	zero,0(sp)
    502015b0:	e406                	sd	ra,8(sp)
    502015b2:	f012                	sd	tp,32(sp)
    502015b4:	ec0e                	sd	gp,24(sp)
    502015b6:	f416                	sd	t0,40(sp)
    502015b8:	f81a                	sd	t1,48(sp)
    502015ba:	fc1e                	sd	t2,56(sp)
    502015bc:	00823283          	ld	t0,8(tp) # 8 <_start-0x50200ff8>
    502015c0:	e816                	sd	t0,16(sp)
    502015c2:	e0a2                	sd	s0,64(sp)
    502015c4:	e4a6                	sd	s1,72(sp)
    502015c6:	e8aa                	sd	a0,80(sp)
    502015c8:	ecae                	sd	a1,88(sp)
    502015ca:	f0b2                	sd	a2,96(sp)
    502015cc:	f4b6                	sd	a3,104(sp)
    502015ce:	f8ba                	sd	a4,112(sp)
    502015d0:	fcbe                	sd	a5,120(sp)
    502015d2:	e142                	sd	a6,128(sp)
    502015d4:	e546                	sd	a7,136(sp)
    502015d6:	e94a                	sd	s2,144(sp)
    502015d8:	ed4e                	sd	s3,152(sp)
    502015da:	f152                	sd	s4,160(sp)
    502015dc:	f556                	sd	s5,168(sp)
    502015de:	f95a                	sd	s6,176(sp)
    502015e0:	fd5e                	sd	s7,184(sp)
    502015e2:	e1e2                	sd	s8,192(sp)
    502015e4:	e5e6                	sd	s9,200(sp)
    502015e6:	e9ea                	sd	s10,208(sp)
    502015e8:	edee                	sd	s11,216(sp)
    502015ea:	f1f2                	sd	t3,224(sp)
    502015ec:	f5f6                	sd	t4,232(sp)
    502015ee:	f9fa                	sd	t5,240(sp)
    502015f0:	fdfe                	sd	t6,248(sp)
    502015f2:	100022f3          	csrr	t0,sstatus
    502015f6:	e216                	sd	t0,256(sp)
    502015f8:	14102373          	csrr	t1,sepc
    502015fc:	e61a                	sd	t1,264(sp)
    502015fe:	143023f3          	csrr	t2,stval
    50201602:	ea1e                	sd	t2,272(sp)
    50201604:	14202e73          	csrr	t3,scause
    50201608:	ee72                	sd	t3,280(sp)
    5020160a:	850a                	mv	a0,sp
    5020160c:	143025f3          	csrr	a1,stval
    50201610:	14202673          	csrr	a2,scause
    50201614:	550000ef          	jal	50201b64 <interrupt_helper>
    50201618:	b725                	j	50201540 <ret_from_exception>
	...

000000005020161c <get_current_cpu_id>:
    5020161c:	f1402573          	csrr	a0,mhartid
    50201620:	8082                	ret
	...

0000000050201624 <setup_exception>:
    50201624:	00000297          	auipc	t0,0x0
    50201628:	f8028293          	addi	t0,t0,-128 # 502015a4 <exception_handler_entry>
    5020162c:	10529073          	csrw	stvec,t0
    50201630:	4289                	li	t0,2
    50201632:	1002a073          	csrs	sstatus,t0
    50201636:	8082                	ret
    50201638:	0001                	nop

000000005020163a <bios_getchar>:
    5020163a:	520007b7          	lui	a5,0x52000
    5020163e:	f1078793          	addi	a5,a5,-240 # 51ffff10 <__BSS_END__+0x1defa70>
    50201642:	639c                	ld	a5,0(a5)
    50201644:	1141                	addi	sp,sp,-16
    50201646:	e406                	sd	ra,8(sp)
    50201648:	4701                	li	a4,0
    5020164a:	4681                	li	a3,0
    5020164c:	4601                	li	a2,0
    5020164e:	4581                	li	a1,0
    50201650:	4501                	li	a0,0
    50201652:	9782                	jalr	a5
    50201654:	60a2                	ld	ra,8(sp)
    50201656:	2501                	sext.w	a0,a0
    50201658:	0141                	addi	sp,sp,16
    5020165a:	8082                	ret

000000005020165c <init_pcb_stack>:
    5020165c:	715d                	addi	sp,sp,-80
    5020165e:	fc26                	sd	s1,56(sp)
    50201660:	f84a                	sd	s2,48(sp)
    50201662:	f44e                	sd	s3,40(sp)
    50201664:	892e                	mv	s2,a1
    50201666:	89b2                	mv	s3,a2
    50201668:	84aa                	mv	s1,a0
    5020166a:	12000613          	li	a2,288
    5020166e:	ee050513          	addi	a0,a0,-288
    50201672:	4581                	li	a1,0
    50201674:	e0a2                	sd	s0,64(sp)
    50201676:	e486                	sd	ra,72(sp)
    50201678:	ec2a                	sd	a0,24(sp)
    5020167a:	8436                	mv	s0,a3
    5020167c:	e83a                	sd	a4,16(sp)
    5020167e:	e43e                	sd	a5,8(sp)
    50201680:	4f9010ef          	jal	50203378 <memset>
    50201684:	6562                	ld	a0,24(sp)
    50201686:	6742                	ld	a4,16(sp)
    50201688:	67a2                	ld	a5,8(sp)
    5020168a:	01253823          	sd	s2,16(a0)
    5020168e:	f100                	sd	s0,32(a0)
    50201690:	e938                	sd	a4,80(a0)
    50201692:	ed3c                	sd	a5,88(a0)
    50201694:	11353423          	sd	s3,264(a0)
    50201698:	100027f3          	csrr	a5,sstatus
    5020169c:	edf7f793          	andi	a5,a5,-289
    502016a0:	0207e793          	ori	a5,a5,32
    502016a4:	10f53023          	sd	a5,256(a0)
    502016a8:	07000613          	li	a2,112
    502016ac:	e7048513          	addi	a0,s1,-400
    502016b0:	4581                	li	a1,0
    502016b2:	e42a                	sd	a0,8(sp)
    502016b4:	4c5010ef          	jal	50203378 <memset>
    502016b8:	6522                	ld	a0,8(sp)
    502016ba:	00000797          	auipc	a5,0x0
    502016be:	e8678793          	addi	a5,a5,-378 # 50201540 <ret_from_exception>
    502016c2:	e6f4b823          	sd	a5,-400(s1)
    502016c6:	01243423          	sd	s2,8(s0)
    502016ca:	60a6                	ld	ra,72(sp)
    502016cc:	e008                	sd	a0,0(s0)
    502016ce:	6406                	ld	s0,64(sp)
    502016d0:	74e2                	ld	s1,56(sp)
    502016d2:	7942                	ld	s2,48(sp)
    502016d4:	79a2                	ld	s3,40(sp)
    502016d6:	6161                	addi	sp,sp,80
    502016d8:	8082                	ret

00000000502016da <port_write_ch>:
    502016da:	50150337          	lui	t1,0x50150
    502016de:	4885                	li	a7,1
    502016e0:	4801                	li	a6,0
    502016e2:	4781                	li	a5,0
    502016e4:	4701                	li	a4,0
    502016e6:	4681                	li	a3,0
    502016e8:	4601                	li	a2,0
    502016ea:	4581                	li	a1,0
    502016ec:	8302                	jr	t1

00000000502016ee <port_write>:
    502016ee:	50150337          	lui	t1,0x50150
    502016f2:	48a5                	li	a7,9
    502016f4:	4801                	li	a6,0
    502016f6:	4781                	li	a5,0
    502016f8:	4701                	li	a4,0
    502016fa:	4681                	li	a3,0
    502016fc:	4601                	li	a2,0
    502016fe:	4581                	li	a1,0
    50201700:	8302                	jr	t1

0000000050201702 <port_read_ch>:
    50201702:	1141                	addi	sp,sp,-16
    50201704:	e406                	sd	ra,8(sp)
    50201706:	50150337          	lui	t1,0x50150
    5020170a:	4889                	li	a7,2
    5020170c:	4801                	li	a6,0
    5020170e:	4781                	li	a5,0
    50201710:	4701                	li	a4,0
    50201712:	4681                	li	a3,0
    50201714:	4601                	li	a2,0
    50201716:	4581                	li	a1,0
    50201718:	4501                	li	a0,0
    5020171a:	9302                	jalr	t1
    5020171c:	60a2                	ld	ra,8(sp)
    5020171e:	2501                	sext.w	a0,a0
    50201720:	0141                	addi	sp,sp,16
    50201722:	8082                	ret

0000000050201724 <sd_read>:
    50201724:	1141                	addi	sp,sp,-16
    50201726:	1502                	slli	a0,a0,0x20
    50201728:	1582                	slli	a1,a1,0x20
    5020172a:	1602                	slli	a2,a2,0x20
    5020172c:	e406                	sd	ra,8(sp)
    5020172e:	9101                	srli	a0,a0,0x20
    50201730:	9181                	srli	a1,a1,0x20
    50201732:	9201                	srli	a2,a2,0x20
    50201734:	50150337          	lui	t1,0x50150
    50201738:	48ad                	li	a7,11
    5020173a:	4801                	li	a6,0
    5020173c:	4781                	li	a5,0
    5020173e:	4701                	li	a4,0
    50201740:	4681                	li	a3,0
    50201742:	9302                	jalr	t1
    50201744:	60a2                	ld	ra,8(sp)
    50201746:	2501                	sext.w	a0,a0
    50201748:	0141                	addi	sp,sp,16
    5020174a:	8082                	ret

000000005020174c <sd_write>:
    5020174c:	1141                	addi	sp,sp,-16
    5020174e:	1502                	slli	a0,a0,0x20
    50201750:	1582                	slli	a1,a1,0x20
    50201752:	1602                	slli	a2,a2,0x20
    50201754:	e406                	sd	ra,8(sp)
    50201756:	9101                	srli	a0,a0,0x20
    50201758:	9181                	srli	a1,a1,0x20
    5020175a:	9201                	srli	a2,a2,0x20
    5020175c:	50150337          	lui	t1,0x50150
    50201760:	48a9                	li	a7,10
    50201762:	4801                	li	a6,0
    50201764:	4781                	li	a5,0
    50201766:	4701                	li	a4,0
    50201768:	4681                	li	a3,0
    5020176a:	9302                	jalr	t1
    5020176c:	60a2                	ld	ra,8(sp)
    5020176e:	2501                	sext.w	a0,a0
    50201770:	0141                	addi	sp,sp,16
    50201772:	8082                	ret

0000000050201774 <set_timer>:
    50201774:	50150337          	lui	t1,0x50150
    50201778:	4881                	li	a7,0
    5020177a:	4801                	li	a6,0
    5020177c:	4781                	li	a5,0
    5020177e:	4701                	li	a4,0
    50201780:	4681                	li	a3,0
    50201782:	4601                	li	a2,0
    50201784:	4581                	li	a1,0
    50201786:	8302                	jr	t1

0000000050201788 <read_fdt>:
    50201788:	1502                	slli	a0,a0,0x20
    5020178a:	9101                	srli	a0,a0,0x20
    5020178c:	50150337          	lui	t1,0x50150
    50201790:	48b1                	li	a7,12
    50201792:	4801                	li	a6,0
    50201794:	4781                	li	a5,0
    50201796:	4701                	li	a4,0
    50201798:	4681                	li	a3,0
    5020179a:	4601                	li	a2,0
    5020179c:	4581                	li	a1,0
    5020179e:	8302                	jr	t1

00000000502017a0 <qemu_logging>:
    502017a0:	50150337          	lui	t1,0x50150
    502017a4:	48b9                	li	a7,14
    502017a6:	4801                	li	a6,0
    502017a8:	4781                	li	a5,0
    502017aa:	4701                	li	a4,0
    502017ac:	4681                	li	a3,0
    502017ae:	4601                	li	a2,0
    502017b0:	4581                	li	a1,0
    502017b2:	8302                	jr	t1

00000000502017b4 <send_ipi>:
    502017b4:	50150337          	lui	t1,0x50150
    502017b8:	4891                	li	a7,4
    502017ba:	4801                	li	a6,0
    502017bc:	4781                	li	a5,0
    502017be:	4701                	li	a4,0
    502017c0:	4681                	li	a3,0
    502017c2:	4601                	li	a2,0
    502017c4:	4581                	li	a1,0
    502017c6:	8302                	jr	t1

00000000502017c8 <screen_write_ch>:
    502017c8:	4729                	li	a4,10
    502017ca:	05422783          	lw	a5,84(tp) # 54 <_start-0x50200fac>
    502017ce:	04e50263          	beq	a0,a4,50201812 <screen_write_ch+0x4a>
    502017d2:	ff850713          	addi	a4,a0,-8
    502017d6:	05022683          	lw	a3,80(tp) # 50 <_start-0x50200fb0>
    502017da:	0005061b          	sext.w	a2,a0
    502017de:	c721                	beqz	a4,50201826 <screen_write_ch+0x5e>
    502017e0:	f8160613          	addi	a2,a2,-127
    502017e4:	c229                	beqz	a2,50201826 <screen_write_ch+0x5e>
    502017e6:	0027971b          	slliw	a4,a5,0x2
    502017ea:	9fb9                	addw	a5,a5,a4
    502017ec:	0047979b          	slliw	a5,a5,0x4
    502017f0:	00004717          	auipc	a4,0x4
    502017f4:	3f070713          	addi	a4,a4,1008 # 50205be0 <new_screen>
    502017f8:	9fb5                	addw	a5,a5,a3
    502017fa:	97ba                	add	a5,a5,a4
    502017fc:	00a78023          	sb	a0,0(a5)
    50201800:	05022783          	lw	a5,80(tp) # 50 <_start-0x50200fb0>
    50201804:	04f00713          	li	a4,79
    50201808:	2785                	addiw	a5,a5,1
    5020180a:	04f75363          	bge	a4,a5,50201850 <screen_write_ch+0x88>
    5020180e:	05422783          	lw	a5,84(tp) # 54 <_start-0x50200fac>
    50201812:	04022823          	sw	zero,80(tp) # 50 <_start-0x50200fb0>
    50201816:	03100713          	li	a4,49
    5020181a:	00f74563          	blt	a4,a5,50201824 <screen_write_ch+0x5c>
    5020181e:	2785                	addiw	a5,a5,1
    50201820:	04f22a23          	sw	a5,84(tp) # 54 <_start-0x50200fac>
    50201824:	8082                	ret
    50201826:	02d05863          	blez	a3,50201856 <screen_write_ch+0x8e>
    5020182a:	36fd                	addiw	a3,a3,-1
    5020182c:	04d22823          	sw	a3,80(tp) # 50 <_start-0x50200fb0>
    50201830:	0027971b          	slliw	a4,a5,0x2
    50201834:	9fb9                	addw	a5,a5,a4
    50201836:	0047979b          	slliw	a5,a5,0x4
    5020183a:	00004717          	auipc	a4,0x4
    5020183e:	3a670713          	addi	a4,a4,934 # 50205be0 <new_screen>
    50201842:	9fb5                	addw	a5,a5,a3
    50201844:	97ba                	add	a5,a5,a4
    50201846:	02000713          	li	a4,32
    5020184a:	00e78023          	sb	a4,0(a5)
    5020184e:	8082                	ret
    50201850:	04f22823          	sw	a5,80(tp) # 50 <_start-0x50200fb0>
    50201854:	8082                	ret
    50201856:	fcf05de3          	blez	a5,50201830 <screen_write_ch+0x68>
    5020185a:	37fd                	addiw	a5,a5,-1
    5020185c:	04f00693          	li	a3,79
    50201860:	04f22a23          	sw	a5,84(tp) # 54 <_start-0x50200fac>
    50201864:	04d22823          	sw	a3,80(tp) # 50 <_start-0x50200fb0>
    50201868:	b7e1                	j	50201830 <screen_write_ch+0x68>

000000005020186a <screen_move_cursor>:
    5020186a:	0005069b          	sext.w	a3,a0
    5020186e:	00055363          	bgez	a0,50201874 <screen_move_cursor+0xa>
    50201872:	4681                	li	a3,0
    50201874:	04f00793          	li	a5,79
    50201878:	00d7d363          	bge	a5,a3,5020187e <screen_move_cursor+0x14>
    5020187c:	86be                	mv	a3,a5
    5020187e:	862e                	mv	a2,a1
    50201880:	0005d363          	bgez	a1,50201886 <screen_move_cursor+0x1c>
    50201884:	4601                	li	a2,0
    50201886:	0006079b          	sext.w	a5,a2
    5020188a:	03100713          	li	a4,49
    5020188e:	00f75363          	bge	a4,a5,50201894 <screen_move_cursor+0x2a>
    50201892:	863a                	mv	a2,a4
    50201894:	04d22823          	sw	a3,80(tp) # 50 <_start-0x50200fb0>
    50201898:	04c22a23          	sw	a2,84(tp) # 54 <_start-0x50200fac>
    5020189c:	2685                	addiw	a3,a3,1
    5020189e:	2605                	addiw	a2,a2,1
    502018a0:	45ed                	li	a1,27
    502018a2:	00002517          	auipc	a0,0x2
    502018a6:	d4e50513          	addi	a0,a0,-690 # 502035f0 <strcat+0x166>
    502018aa:	2270106f          	j	502032d0 <printv>

00000000502018ae <screen_write>:
    502018ae:	1101                	addi	sp,sp,-32
    502018b0:	e822                	sd	s0,16(sp)
    502018b2:	ec06                	sd	ra,24(sp)
    502018b4:	842a                	mv	s0,a0
    502018b6:	2eb010ef          	jal	502033a0 <strlen>
    502018ba:	00a05d63          	blez	a0,502018d4 <screen_write+0x26>
    502018be:	e426                	sd	s1,8(sp)
    502018c0:	00a404b3          	add	s1,s0,a0
    502018c4:	00044503          	lbu	a0,0(s0)
    502018c8:	0405                	addi	s0,s0,1
    502018ca:	effff0ef          	jal	502017c8 <screen_write_ch>
    502018ce:	fe941be3          	bne	s0,s1,502018c4 <screen_write+0x16>
    502018d2:	64a2                	ld	s1,8(sp)
    502018d4:	60e2                	ld	ra,24(sp)
    502018d6:	6442                	ld	s0,16(sp)
    502018d8:	6105                	addi	sp,sp,32
    502018da:	8082                	ret

00000000502018dc <screen_reflush>:
    502018dc:	715d                	addi	sp,sp,-80
    502018de:	ec56                	sd	s5,24(sp)
    502018e0:	e85a                	sd	s6,16(sp)
    502018e2:	52000ab7          	lui	s5,0x52000
    502018e6:	00003b17          	auipc	s6,0x3
    502018ea:	35ab0b13          	addi	s6,s6,858 # 50204c40 <old_screen>
    502018ee:	f84a                	sd	s2,48(sp)
    502018f0:	f44e                	sd	s3,40(sp)
    502018f2:	e45e                	sd	s7,8(sp)
    502018f4:	e062                	sd	s8,0(sp)
    502018f6:	e486                	sd	ra,72(sp)
    502018f8:	e0a2                	sd	s0,64(sp)
    502018fa:	fc26                	sd	s1,56(sp)
    502018fc:	f052                	sd	s4,32(sp)
    502018fe:	41600b3b          	negw	s6,s6
    50201902:	f08a8a93          	addi	s5,s5,-248 # 51ffff08 <__BSS_END__+0x1defa68>
    50201906:	00003997          	auipc	s3,0x3
    5020190a:	38a98993          	addi	s3,s3,906 # 50204c90 <old_screen+0x50>
    5020190e:	00004b97          	auipc	s7,0x4
    50201912:	2d2b8b93          	addi	s7,s7,722 # 50205be0 <new_screen>
    50201916:	4901                	li	s2,0
    50201918:	03200c13          	li	s8,50
    5020191c:	2905                	addiw	s2,s2,1
    5020191e:	fb098413          	addi	s0,s3,-80
    50201922:	84de                	mv	s1,s7
    50201924:	001b0a1b          	addiw	s4,s6,1
    50201928:	0004c703          	lbu	a4,0(s1)
    5020192c:	00044783          	lbu	a5,0(s0)
    50201930:	008a06bb          	addw	a3,s4,s0
    50201934:	864a                	mv	a2,s2
    50201936:	45ed                	li	a1,27
    50201938:	00002517          	auipc	a0,0x2
    5020193c:	cb850513          	addi	a0,a0,-840 # 502035f0 <strcat+0x166>
    50201940:	02f70163          	beq	a4,a5,50201962 <screen_reflush+0x86>
    50201944:	18d010ef          	jal	502032d0 <printv>
    50201948:	000ab783          	ld	a5,0(s5)
    5020194c:	0004c503          	lbu	a0,0(s1)
    50201950:	4701                	li	a4,0
    50201952:	4681                	li	a3,0
    50201954:	4601                	li	a2,0
    50201956:	4581                	li	a1,0
    50201958:	9782                	jalr	a5
    5020195a:	0004c783          	lbu	a5,0(s1)
    5020195e:	00f40023          	sb	a5,0(s0)
    50201962:	0405                	addi	s0,s0,1
    50201964:	0485                	addi	s1,s1,1
    50201966:	fd3411e3          	bne	s0,s3,50201928 <screen_reflush+0x4c>
    5020196a:	05040993          	addi	s3,s0,80
    5020196e:	050b8b93          	addi	s7,s7,80
    50201972:	fb0b0b1b          	addiw	s6,s6,-80
    50201976:	fb8913e3          	bne	s2,s8,5020191c <screen_reflush+0x40>
    5020197a:	05022683          	lw	a3,80(tp) # 50 <_start-0x50200fb0>
    5020197e:	05422603          	lw	a2,84(tp) # 54 <_start-0x50200fac>
    50201982:	6406                	ld	s0,64(sp)
    50201984:	60a6                	ld	ra,72(sp)
    50201986:	74e2                	ld	s1,56(sp)
    50201988:	7942                	ld	s2,48(sp)
    5020198a:	79a2                	ld	s3,40(sp)
    5020198c:	7a02                	ld	s4,32(sp)
    5020198e:	6ae2                	ld	s5,24(sp)
    50201990:	6b42                	ld	s6,16(sp)
    50201992:	6ba2                	ld	s7,8(sp)
    50201994:	6c02                	ld	s8,0(sp)
    50201996:	45ed                	li	a1,27
    50201998:	2685                	addiw	a3,a3,1
    5020199a:	2605                	addiw	a2,a2,1
    5020199c:	00002517          	auipc	a0,0x2
    502019a0:	c5450513          	addi	a0,a0,-940 # 502035f0 <strcat+0x166>
    502019a4:	6161                	addi	sp,sp,80
    502019a6:	12b0106f          	j	502032d0 <printv>

00000000502019aa <screen_clear>:
    502019aa:	1141                	addi	sp,sp,-16
    502019ac:	45ed                	li	a1,27
    502019ae:	00002517          	auipc	a0,0x2
    502019b2:	c5250513          	addi	a0,a0,-942 # 50203600 <strcat+0x176>
    502019b6:	e406                	sd	ra,8(sp)
    502019b8:	119010ef          	jal	502032d0 <printv>
    502019bc:	00003697          	auipc	a3,0x3
    502019c0:	ee46b683          	ld	a3,-284(a3) # 502048a0 <__SDATA_BEGIN__>
    502019c4:	00004517          	auipc	a0,0x4
    502019c8:	21c50513          	addi	a0,a0,540 # 50205be0 <new_screen>
    502019cc:	00003597          	auipc	a1,0x3
    502019d0:	27458593          	addi	a1,a1,628 # 50204c40 <old_screen>
    502019d4:	00004617          	auipc	a2,0x4
    502019d8:	25c60613          	addi	a2,a2,604 # 50205c30 <new_screen+0x50>
    502019dc:	00005817          	auipc	a6,0x5
    502019e0:	1f480813          	addi	a6,a6,500 # 50206bd0 <irq_table+0x50>
    502019e4:	872e                	mv	a4,a1
    502019e6:	87aa                	mv	a5,a0
    502019e8:	e394                	sd	a3,0(a5)
    502019ea:	e314                	sd	a3,0(a4)
    502019ec:	07a1                	addi	a5,a5,8
    502019ee:	0721                	addi	a4,a4,8
    502019f0:	fec79ce3          	bne	a5,a2,502019e8 <screen_clear+0x3e>
    502019f4:	05078613          	addi	a2,a5,80
    502019f8:	05050513          	addi	a0,a0,80
    502019fc:	05058593          	addi	a1,a1,80
    50201a00:	ff0612e3          	bne	a2,a6,502019e4 <screen_clear+0x3a>
    50201a04:	60a2                	ld	ra,8(sp)
    50201a06:	04023823          	sd	zero,80(tp) # 50 <_start-0x50200fb0>
    50201a0a:	0141                	addi	sp,sp,16
    50201a0c:	bdc1                	j	502018dc <screen_reflush>

0000000050201a0e <init_screen>:
    50201a0e:	1141                	addi	sp,sp,-16
    50201a10:	45ed                	li	a1,27
    50201a12:	00002517          	auipc	a0,0x2
    50201a16:	bf650513          	addi	a0,a0,-1034 # 50203608 <strcat+0x17e>
    50201a1a:	e406                	sd	ra,8(sp)
    50201a1c:	0b5010ef          	jal	502032d0 <printv>
    50201a20:	45ed                	li	a1,27
    50201a22:	00002517          	auipc	a0,0x2
    50201a26:	bde50513          	addi	a0,a0,-1058 # 50203600 <strcat+0x176>
    50201a2a:	0a7010ef          	jal	502032d0 <printv>
    50201a2e:	60a2                	ld	ra,8(sp)
    50201a30:	0141                	addi	sp,sp,16
    50201a32:	bfa5                	j	502019aa <screen_clear>

0000000050201a34 <handle_irq_timer>:
    50201a34:	1141                	addi	sp,sp,-16
    50201a36:	e406                	sd	ra,8(sp)
    50201a38:	23e010ef          	jal	50202c76 <get_ticks>
    50201a3c:	520007b7          	lui	a5,0x52000
    50201a40:	f3078793          	addi	a5,a5,-208 # 51ffff30 <__BSS_END__+0x1defa90>
    50201a44:	639c                	ld	a5,0(a5)
    50201a46:	4701                	li	a4,0
    50201a48:	4681                	li	a3,0
    50201a4a:	4601                	li	a2,0
    50201a4c:	4581                	li	a1,0
    50201a4e:	09650513          	addi	a0,a0,150
    50201a52:	9782                	jalr	a5
    50201a54:	04022583          	lw	a1,64(tp) # 40 <_start-0x50200fc0>
    50201a58:	00002517          	auipc	a0,0x2
    50201a5c:	bb850513          	addi	a0,a0,-1096 # 50203610 <strcat+0x186>
    50201a60:	09d010ef          	jal	502032fc <printl>
    50201a64:	60a2                	ld	ra,8(sp)
    50201a66:	0141                	addi	sp,sp,16
    50201a68:	ab95                	j	50201fdc <do_scheduler>

0000000050201a6a <handle_other>:
    50201a6a:	710d                	addi	sp,sp,-352
    50201a6c:	ee5e                	sd	s7,280(sp)
    50201a6e:	ea62                	sd	s8,272(sp)
    50201a70:	e666                	sd	s9,264(sp)
    50201a72:	ee86                	sd	ra,344(sp)
    50201a74:	eaa2                	sd	s0,336(sp)
    50201a76:	e6a6                	sd	s1,328(sp)
    50201a78:	e2ca                	sd	s2,320(sp)
    50201a7a:	fe4e                	sd	s3,312(sp)
    50201a7c:	fa52                	sd	s4,304(sp)
    50201a7e:	f656                	sd	s5,296(sp)
    50201a80:	f25a                	sd	s6,288(sp)
    50201a82:	8baa                	mv	s7,a0
    50201a84:	8c2e                	mv	s8,a1
    50201a86:	8cb2                	mv	s9,a2
    50201a88:	00002797          	auipc	a5,0x2
    50201a8c:	e6078793          	addi	a5,a5,-416 # 502038e8 <strcat+0x45e>
    50201a90:	870a                	mv	a4,sp
    50201a92:	00002697          	auipc	a3,0x2
    50201a96:	f5668693          	addi	a3,a3,-170 # 502039e8 <__FUNCTION__.0>
    50201a9a:	0007b803          	ld	a6,0(a5)
    50201a9e:	6788                	ld	a0,8(a5)
    50201aa0:	6b8c                	ld	a1,16(a5)
    50201aa2:	6f90                	ld	a2,24(a5)
    50201aa4:	01073023          	sd	a6,0(a4)
    50201aa8:	e708                	sd	a0,8(a4)
    50201aaa:	eb0c                	sd	a1,16(a4)
    50201aac:	ef10                	sd	a2,24(a4)
    50201aae:	02078793          	addi	a5,a5,32
    50201ab2:	02070713          	addi	a4,a4,32
    50201ab6:	fed792e3          	bne	a5,a3,50201a9a <handle_other+0x30>
    50201aba:	8a8a                	mv	s5,sp
    50201abc:	8a5e                	mv	s4,s7
    50201abe:	598d                	li	s3,-29
    50201ac0:	4b11                	li	s6,4
    50201ac2:	8952                	mv	s2,s4
    50201ac4:	84d6                	mv	s1,s5
    50201ac6:	440d                	li	s0,3
    50201ac8:	00002517          	auipc	a0,0x2
    50201acc:	b5050513          	addi	a0,a0,-1200 # 50203618 <strcat+0x18e>
    50201ad0:	09340363          	beq	s0,s3,50201b56 <handle_other+0xec>
    50201ad4:	00093603          	ld	a2,0(s2)
    50201ad8:	608c                	ld	a1,0(s1)
    50201ada:	347d                	addiw	s0,s0,-1
    50201adc:	04a1                	addi	s1,s1,8
    50201ade:	7c6010ef          	jal	502032a4 <printk>
    50201ae2:	0921                	addi	s2,s2,8
    50201ae4:	f075                	bnez	s0,50201ac8 <handle_other+0x5e>
    50201ae6:	00002517          	auipc	a0,0x2
    50201aea:	b4250513          	addi	a0,a0,-1214 # 50203628 <strcat+0x19e>
    50201aee:	298d                	addiw	s3,s3,3
    50201af0:	7b4010ef          	jal	502032a4 <printk>
    50201af4:	0ae1                	addi	s5,s5,24
    50201af6:	0a61                	addi	s4,s4,24
    50201af8:	fd6995e3          	bne	s3,s6,50201ac2 <handle_other+0x58>
    50201afc:	118bb683          	ld	a3,280(s7)
    50201b00:	110bb603          	ld	a2,272(s7)
    50201b04:	100bb583          	ld	a1,256(s7)
    50201b08:	00002517          	auipc	a0,0x2
    50201b0c:	b2850513          	addi	a0,a0,-1240 # 50203630 <strcat+0x1a6>
    50201b10:	794010ef          	jal	502032a4 <printk>
    50201b14:	108bb583          	ld	a1,264(s7)
    50201b18:	00002517          	auipc	a0,0x2
    50201b1c:	b4850513          	addi	a0,a0,-1208 # 50203660 <strcat+0x1d6>
    50201b20:	784010ef          	jal	502032a4 <printk>
    50201b24:	8666                	mv	a2,s9
    50201b26:	85e2                	mv	a1,s8
    50201b28:	00002517          	auipc	a0,0x2
    50201b2c:	b4850513          	addi	a0,a0,-1208 # 50203670 <strcat+0x1e6>
    50201b30:	774010ef          	jal	502032a4 <printk>
    50201b34:	05200693          	li	a3,82
    50201b38:	00002617          	auipc	a2,0x2
    50201b3c:	b5860613          	addi	a2,a2,-1192 # 50203690 <strcat+0x206>
    50201b40:	00002597          	auipc	a1,0x2
    50201b44:	ea858593          	addi	a1,a1,-344 # 502039e8 <__FUNCTION__.0>
    50201b48:	00002517          	auipc	a0,0x2
    50201b4c:	b6050513          	addi	a0,a0,-1184 # 502036a8 <strcat+0x21e>
    50201b50:	754010ef          	jal	502032a4 <printk>
    50201b54:	a001                	j	50201b54 <handle_other+0xea>
    50201b56:	00002517          	auipc	a0,0x2
    50201b5a:	ad250513          	addi	a0,a0,-1326 # 50203628 <strcat+0x19e>
    50201b5e:	746010ef          	jal	502032a4 <printk>
    50201b62:	bf69                	j	50201afc <handle_other+0x92>

0000000050201b64 <interrupt_helper>:
    50201b64:	00361793          	slli	a5,a2,0x3
    50201b68:	00005717          	auipc	a4,0x5
    50201b6c:	01870713          	addi	a4,a4,24 # 50206b80 <irq_table>
    50201b70:	97ba                	add	a5,a5,a4
    50201b72:	00064463          	bltz	a2,50201b7a <interrupt_helper+0x16>
    50201b76:	73bc                	ld	a5,96(a5)
    50201b78:	8782                	jr	a5
    50201b7a:	639c                	ld	a5,0(a5)
    50201b7c:	8782                	jr	a5

0000000050201b7e <init_exception>:
    50201b7e:	00005797          	auipc	a5,0x5
    50201b82:	06278793          	addi	a5,a5,98 # 50206be0 <exc_table>
    50201b86:	00005697          	auipc	a3,0x5
    50201b8a:	0da68693          	addi	a3,a3,218 # 50206c60 <read_buffer>
    50201b8e:	00000717          	auipc	a4,0x0
    50201b92:	edc70713          	addi	a4,a4,-292 # 50201a6a <handle_other>
    50201b96:	e398                	sd	a4,0(a5)
    50201b98:	07a1                	addi	a5,a5,8
    50201b9a:	fed79ee3          	bne	a5,a3,50201b96 <init_exception+0x18>
    50201b9e:	00001697          	auipc	a3,0x1
    50201ba2:	18068693          	addi	a3,a3,384 # 50202d1e <handle_syscall>
    50201ba6:	00000797          	auipc	a5,0x0
    50201baa:	e8e78793          	addi	a5,a5,-370 # 50201a34 <handle_irq_timer>
    50201bae:	00005617          	auipc	a2,0x5
    50201bb2:	fce63923          	sd	a4,-46(a2) # 50206b80 <irq_table>
    50201bb6:	00005617          	auipc	a2,0x5
    50201bba:	fce63923          	sd	a4,-46(a2) # 50206b88 <irq_table+0x8>
    50201bbe:	00005617          	auipc	a2,0x5
    50201bc2:	fce63d23          	sd	a4,-38(a2) # 50206b98 <irq_table+0x18>
    50201bc6:	00005617          	auipc	a2,0x5
    50201bca:	fce63d23          	sd	a4,-38(a2) # 50206ba0 <irq_table+0x20>
    50201bce:	00005617          	auipc	a2,0x5
    50201bd2:	fee63523          	sd	a4,-22(a2) # 50206bb8 <irq_table+0x38>
    50201bd6:	00005617          	auipc	a2,0x5
    50201bda:	fee63523          	sd	a4,-22(a2) # 50206bc0 <irq_table+0x40>
    50201bde:	00005617          	auipc	a2,0x5
    50201be2:	fee63523          	sd	a4,-22(a2) # 50206bc8 <irq_table+0x48>
    50201be6:	00005617          	auipc	a2,0x5
    50201bea:	fee63923          	sd	a4,-14(a2) # 50206bd8 <irq_table+0x58>
    50201bee:	00005717          	auipc	a4,0x5
    50201bf2:	02d73923          	sd	a3,50(a4) # 50206c20 <exc_table+0x40>
    50201bf6:	00005717          	auipc	a4,0x5
    50201bfa:	faf73923          	sd	a5,-78(a4) # 50206ba8 <irq_table+0x28>
    50201bfe:	b41d                	j	50201624 <setup_exception>

0000000050201c00 <load_task_img>:
    50201c00:	7179                	addi	sp,sp,-48
    50201c02:	e44e                	sd	s3,8(sp)
    50201c04:	00003997          	auipc	s3,0x3
    50201c08:	ce498993          	addi	s3,s3,-796 # 502048e8 <tasks>
    50201c0c:	f022                	sd	s0,32(sp)
    50201c0e:	ec26                	sd	s1,24(sp)
    50201c10:	e84a                	sd	s2,16(sp)
    50201c12:	e052                	sd	s4,0(sp)
    50201c14:	f406                	sd	ra,40(sp)
    50201c16:	8a2a                	mv	s4,a0
    50201c18:	844e                	mv	s0,s3
    50201c1a:	4481                	li	s1,0
    50201c1c:	4941                	li	s2,16
    50201c1e:	a031                	j	50201c2a <load_task_img+0x2a>
    50201c20:	2485                	addiw	s1,s1,1
    50201c22:	03040413          	addi	s0,s0,48
    50201c26:	0b248e63          	beq	s1,s2,50201ce2 <load_task_img+0xe2>
    50201c2a:	00044783          	lbu	a5,0(s0)
    50201c2e:	dbed                	beqz	a5,50201c20 <load_task_img+0x20>
    50201c30:	85d2                	mv	a1,s4
    50201c32:	8522                	mv	a0,s0
    50201c34:	78a010ef          	jal	502033be <strcmp>
    50201c38:	f565                	bnez	a0,50201c20 <load_task_img+0x20>
    50201c3a:	00149793          	slli	a5,s1,0x1
    50201c3e:	97a6                	add	a5,a5,s1
    50201c40:	0792                	slli	a5,a5,0x4
    50201c42:	00f98433          	add	s0,s3,a5
    50201c46:	02042903          	lw	s2,32(s0)
    50201c4a:	02442983          	lw	s3,36(s0)
    50201c4e:	67a1                	lui	a5,0x8
    50201c50:	0099561b          	srliw	a2,s2,0x9
    50201c54:	013905bb          	addw	a1,s2,s3
    50201c58:	35fd                	addiw	a1,a1,-1
    50201c5a:	0095d59b          	srliw	a1,a1,0x9
    50201c5e:	9d91                	subw	a1,a1,a2
    50201c60:	2585                	addiw	a1,a1,1
    50201c62:	0095971b          	slliw	a4,a1,0x9
    50201c66:	04e7e763          	bltu	a5,a4,50201cb4 <load_task_img+0xb4>
    50201c6a:	520007b7          	lui	a5,0x52000
    50201c6e:	f1878793          	addi	a5,a5,-232 # 51ffff18 <__BSS_END__+0x1defa78>
    50201c72:	00005a17          	auipc	s4,0x5
    50201c76:	feea0a13          	addi	s4,s4,-18 # 50206c60 <read_buffer>
    50201c7a:	639c                	ld	a5,0(a5)
    50201c7c:	020a1513          	slli	a0,s4,0x20
    50201c80:	1582                	slli	a1,a1,0x20
    50201c82:	9181                	srli	a1,a1,0x20
    50201c84:	4701                	li	a4,0
    50201c86:	4681                	li	a3,0
    50201c88:	9101                	srli	a0,a0,0x20
    50201c8a:	9782                	jalr	a5
    50201c8c:	6515                	lui	a0,0x5
    50201c8e:	2005051b          	addiw	a0,a0,512 # 5200 <_start-0x501fbe00>
    50201c92:	1ff97593          	andi	a1,s2,511
    50201c96:	9d25                	addw	a0,a0,s1
    50201c98:	95d2                	add	a1,a1,s4
    50201c9a:	864e                	mv	a2,s3
    50201c9c:	0542                	slli	a0,a0,0x10
    50201c9e:	6c0010ef          	jal	5020335e <memcpy>
    50201ca2:	7408                	ld	a0,40(s0)
    50201ca4:	70a2                	ld	ra,40(sp)
    50201ca6:	7402                	ld	s0,32(sp)
    50201ca8:	64e2                	ld	s1,24(sp)
    50201caa:	6942                	ld	s2,16(sp)
    50201cac:	69a2                	ld	s3,8(sp)
    50201cae:	6a02                	ld	s4,0(sp)
    50201cb0:	6145                	addi	sp,sp,48
    50201cb2:	8082                	ret
    50201cb4:	520007b7          	lui	a5,0x52000
    50201cb8:	f0078793          	addi	a5,a5,-256 # 51ffff00 <__BSS_END__+0x1defa60>
    50201cbc:	639c                	ld	a5,0(a5)
    50201cbe:	4701                	li	a4,0
    50201cc0:	4681                	li	a3,0
    50201cc2:	4601                	li	a2,0
    50201cc4:	4581                	li	a1,0
    50201cc6:	00002517          	auipc	a0,0x2
    50201cca:	b0a50513          	addi	a0,a0,-1270 # 502037d0 <strcat+0x346>
    50201cce:	9782                	jalr	a5
    50201cd0:	4501                	li	a0,0
    50201cd2:	70a2                	ld	ra,40(sp)
    50201cd4:	7402                	ld	s0,32(sp)
    50201cd6:	64e2                	ld	s1,24(sp)
    50201cd8:	6942                	ld	s2,16(sp)
    50201cda:	69a2                	ld	s3,8(sp)
    50201cdc:	6a02                	ld	s4,0(sp)
    50201cde:	6145                	addi	sp,sp,48
    50201ce0:	8082                	ret
    50201ce2:	52000437          	lui	s0,0x52000
    50201ce6:	f0043783          	ld	a5,-256(s0) # 51ffff00 <__BSS_END__+0x1defa60>
    50201cea:	4701                	li	a4,0
    50201cec:	4681                	li	a3,0
    50201cee:	4601                	li	a2,0
    50201cf0:	4581                	li	a1,0
    50201cf2:	00002517          	auipc	a0,0x2
    50201cf6:	b0e50513          	addi	a0,a0,-1266 # 50203800 <strcat+0x376>
    50201cfa:	9782                	jalr	a5
    50201cfc:	f0043783          	ld	a5,-256(s0)
    50201d00:	4701                	li	a4,0
    50201d02:	4681                	li	a3,0
    50201d04:	4601                	li	a2,0
    50201d06:	4581                	li	a1,0
    50201d08:	8552                	mv	a0,s4
    50201d0a:	9782                	jalr	a5
    50201d0c:	f0043783          	ld	a5,-256(s0)
    50201d10:	4701                	li	a4,0
    50201d12:	4681                	li	a3,0
    50201d14:	4601                	li	a2,0
    50201d16:	4581                	li	a1,0
    50201d18:	00002517          	auipc	a0,0x2
    50201d1c:	b0050513          	addi	a0,a0,-1280 # 50203818 <strcat+0x38e>
    50201d20:	9782                	jalr	a5
    50201d22:	4501                	li	a0,0
    50201d24:	b77d                	j	50201cd2 <load_task_img+0xd2>

0000000050201d26 <init_locks>:
    50201d26:	00003797          	auipc	a5,0x3
    50201d2a:	ba07a523          	sw	zero,-1110(a5) # 502048d0 <mlock_alloc_lock>
    50201d2e:	0000d797          	auipc	a5,0xd
    50201d32:	f3a78793          	addi	a5,a5,-198 # 5020ec68 <mlocks+0x8>
    50201d36:	0000d617          	auipc	a2,0xd
    50201d3a:	12a60613          	addi	a2,a2,298 # 5020ee60 <mlock_status>
    50201d3e:	4701                	li	a4,0
    50201d40:	0000d817          	auipc	a6,0xd
    50201d44:	f2080813          	addi	a6,a6,-224 # 5020ec60 <mlocks>
    50201d48:	557d                	li	a0,-1
    50201d4a:	45c1                	li	a1,16
    50201d4c:	00571693          	slli	a3,a4,0x5
    50201d50:	96c2                	add	a3,a3,a6
    50201d52:	0006a023          	sw	zero,0(a3)
    50201d56:	00062023          	sw	zero,0(a2)
    50201d5a:	e39c                	sd	a5,0(a5)
    50201d5c:	e79c                	sd	a5,8(a5)
    50201d5e:	cb88                	sw	a0,16(a5)
    50201d60:	2705                	addiw	a4,a4,1
    50201d62:	0611                	addi	a2,a2,4
    50201d64:	02078793          	addi	a5,a5,32
    50201d68:	feb712e3          	bne	a4,a1,50201d4c <init_locks+0x26>
    50201d6c:	8082                	ret

0000000050201d6e <spin_lock_init>:
    50201d6e:	00052023          	sw	zero,0(a0)
    50201d72:	8082                	ret

0000000050201d74 <spin_lock_try_acquire>:
    50201d74:	4785                	li	a5,1
    50201d76:	0ef527af          	amoswap.w.aqrl	a5,a5,(a0)
    50201d7a:	2781                	sext.w	a5,a5
    50201d7c:	0017b513          	seqz	a0,a5
    50201d80:	8082                	ret

0000000050201d82 <spin_lock_acquire>:
    50201d82:	4705                	li	a4,1
    50201d84:	0ee527af          	amoswap.w.aqrl	a5,a4,(a0)
    50201d88:	2781                	sext.w	a5,a5
    50201d8a:	ffed                	bnez	a5,50201d84 <spin_lock_acquire+0x2>
    50201d8c:	8082                	ret

0000000050201d8e <spin_lock_release>:
    50201d8e:	00052023          	sw	zero,0(a0)
    50201d92:	8082                	ret

0000000050201d94 <do_mutex_lock_init>:
    50201d94:	00003717          	auipc	a4,0x3
    50201d98:	b3c70713          	addi	a4,a4,-1220 # 502048d0 <mlock_alloc_lock>
    50201d9c:	4685                	li	a3,1
    50201d9e:	0ed727af          	amoswap.w.aqrl	a5,a3,(a4)
    50201da2:	2781                	sext.w	a5,a5
    50201da4:	ffed                	bnez	a5,50201d9e <do_mutex_lock_init+0xa>
    50201da6:	0000d617          	auipc	a2,0xd
    50201daa:	ed260613          	addi	a2,a2,-302 # 5020ec78 <mlocks+0x18>
    50201dae:	8732                	mv	a4,a2
    50201db0:	45c1                	li	a1,16
    50201db2:	4314                	lw	a3,0(a4)
    50201db4:	02070713          	addi	a4,a4,32
    50201db8:	02a68163          	beq	a3,a0,50201dda <do_mutex_lock_init+0x46>
    50201dbc:	2785                	addiw	a5,a5,1
    50201dbe:	feb79ae3          	bne	a5,a1,50201db2 <do_mutex_lock_init+0x1e>
    50201dc2:	4781                	li	a5,0
    50201dc4:	56fd                	li	a3,-1
    50201dc6:	45c1                	li	a1,16
    50201dc8:	4218                	lw	a4,0(a2)
    50201dca:	02060613          	addi	a2,a2,32
    50201dce:	00d70c63          	beq	a4,a3,50201de6 <do_mutex_lock_init+0x52>
    50201dd2:	2785                	addiw	a5,a5,1
    50201dd4:	feb79ae3          	bne	a5,a1,50201dc8 <do_mutex_lock_init+0x34>
    50201dd8:	57fd                	li	a5,-1
    50201dda:	00003717          	auipc	a4,0x3
    50201dde:	ae072b23          	sw	zero,-1290(a4) # 502048d0 <mlock_alloc_lock>
    50201de2:	853e                	mv	a0,a5
    50201de4:	8082                	ret
    50201de6:	00579693          	slli	a3,a5,0x5
    50201dea:	0000d717          	auipc	a4,0xd
    50201dee:	e7670713          	addi	a4,a4,-394 # 5020ec60 <mlocks>
    50201df2:	9736                	add	a4,a4,a3
    50201df4:	cf08                	sw	a0,24(a4)
    50201df6:	00003717          	auipc	a4,0x3
    50201dfa:	ac072d23          	sw	zero,-1318(a4) # 502048d0 <mlock_alloc_lock>
    50201dfe:	853e                	mv	a0,a5
    50201e00:	8082                	ret

0000000050201e02 <do_mutex_lock_acquire>:
    50201e02:	47bd                	li	a5,15
    50201e04:	04a7ea63          	bltu	a5,a0,50201e58 <do_mutex_lock_acquire+0x56>
    50201e08:	7139                	addi	sp,sp,-64
    50201e0a:	e456                	sd	s5,8(sp)
    50201e0c:	00551a93          	slli	s5,a0,0x5
    50201e10:	ec4e                	sd	s3,24(sp)
    50201e12:	e852                	sd	s4,16(sp)
    50201e14:	050a                	slli	a0,a0,0x2
    50201e16:	0000da17          	auipc	s4,0xd
    50201e1a:	e4aa0a13          	addi	s4,s4,-438 # 5020ec60 <mlocks>
    50201e1e:	008a8993          	addi	s3,s5,8
    50201e22:	f822                	sd	s0,48(sp)
    50201e24:	f426                	sd	s1,40(sp)
    50201e26:	f04a                	sd	s2,32(sp)
    50201e28:	fc06                	sd	ra,56(sp)
    50201e2a:	99d2                	add	s3,s3,s4
    50201e2c:	00aa0933          	add	s2,s4,a0
    50201e30:	015a0433          	add	s0,s4,s5
    50201e34:	4485                	li	s1,1
    50201e36:	0e9427af          	amoswap.w.aqrl	a5,s1,(s0)
    50201e3a:	2781                	sext.w	a5,a5
    50201e3c:	ffed                	bnez	a5,50201e36 <do_mutex_lock_acquire+0x34>
    50201e3e:	20092783          	lw	a5,512(s2)
    50201e42:	85ce                	mv	a1,s3
    50201e44:	02020513          	addi	a0,tp,32 # 20 <_start-0x50200fe0>
    50201e48:	cb89                	beqz	a5,50201e5a <do_mutex_lock_acquire+0x58>
    50201e4a:	26a000ef          	jal	502020b4 <do_block>
    50201e4e:	00042023          	sw	zero,0(s0)
    50201e52:	18a000ef          	jal	50201fdc <do_scheduler>
    50201e56:	b7c5                	j	50201e36 <do_mutex_lock_acquire+0x34>
    50201e58:	8082                	ret
    50201e5a:	04022703          	lw	a4,64(tp) # 40 <_start-0x50200fc0>
    50201e5e:	70e2                	ld	ra,56(sp)
    50201e60:	7442                	ld	s0,48(sp)
    50201e62:	9a56                	add	s4,s4,s5
    50201e64:	4785                	li	a5,1
    50201e66:	00ea2e23          	sw	a4,28(s4)
    50201e6a:	000a2023          	sw	zero,0(s4)
    50201e6e:	20f92023          	sw	a5,512(s2)
    50201e72:	74a2                	ld	s1,40(sp)
    50201e74:	7902                	ld	s2,32(sp)
    50201e76:	69e2                	ld	s3,24(sp)
    50201e78:	6a42                	ld	s4,16(sp)
    50201e7a:	6aa2                	ld	s5,8(sp)
    50201e7c:	6121                	addi	sp,sp,64
    50201e7e:	8082                	ret

0000000050201e80 <do_mutex_lock_release>:
    50201e80:	47bd                	li	a5,15
    50201e82:	06a7e963          	bltu	a5,a0,50201ef4 <do_mutex_lock_release+0x74>
    50201e86:	00551593          	slli	a1,a0,0x5
    50201e8a:	0000d617          	auipc	a2,0xd
    50201e8e:	dd660613          	addi	a2,a2,-554 # 5020ec60 <mlocks>
    50201e92:	00b60733          	add	a4,a2,a1
    50201e96:	4685                	li	a3,1
    50201e98:	0ed727af          	amoswap.w.aqrl	a5,a3,(a4)
    50201e9c:	2781                	sext.w	a5,a5
    50201e9e:	ffed                	bnez	a5,50201e98 <do_mutex_lock_release+0x18>
    50201ea0:	00b60733          	add	a4,a2,a1
    50201ea4:	4f54                	lw	a3,28(a4)
    50201ea6:	04022783          	lw	a5,64(tp) # 40 <_start-0x50200fc0>
    50201eaa:	00f68663          	beq	a3,a5,50201eb6 <do_mutex_lock_release+0x36>
    50201eae:	962e                	add	a2,a2,a1
    50201eb0:	00062023          	sw	zero,0(a2)
    50201eb4:	8082                	ret
    50201eb6:	00251793          	slli	a5,a0,0x2
    50201eba:	6708                	ld	a0,8(a4)
    50201ebc:	97b2                	add	a5,a5,a2
    50201ebe:	587d                	li	a6,-1
    50201ec0:	00858693          	addi	a3,a1,8
    50201ec4:	2007a023          	sw	zero,512(a5)
    50201ec8:	01072e23          	sw	a6,28(a4)
    50201ecc:	00d607b3          	add	a5,a2,a3
    50201ed0:	fcf50fe3          	beq	a0,a5,50201eae <do_mutex_lock_release+0x2e>
    50201ed4:	1101                	addi	sp,sp,-32
    50201ed6:	ec06                	sd	ra,24(sp)
    50201ed8:	e42e                	sd	a1,8(sp)
    50201eda:	1ea000ef          	jal	502020c4 <do_unblock>
    50201ede:	65a2                	ld	a1,8(sp)
    50201ee0:	60e2                	ld	ra,24(sp)
    50201ee2:	0000d617          	auipc	a2,0xd
    50201ee6:	d7e60613          	addi	a2,a2,-642 # 5020ec60 <mlocks>
    50201eea:	962e                	add	a2,a2,a1
    50201eec:	00062023          	sw	zero,0(a2)
    50201ef0:	6105                	addi	sp,sp,32
    50201ef2:	8082                	ret
    50201ef4:	8082                	ret

0000000050201ef6 <check_and_release_locks>:
    50201ef6:	715d                	addi	sp,sp,-80
    50201ef8:	e0a2                	sd	s0,64(sp)
    50201efa:	fc26                	sd	s1,56(sp)
    50201efc:	f84a                	sd	s2,48(sp)
    50201efe:	f44e                	sd	s3,40(sp)
    50201f00:	f052                	sd	s4,32(sp)
    50201f02:	ec56                	sd	s5,24(sp)
    50201f04:	e85a                	sd	s6,16(sp)
    50201f06:	e45e                	sd	s7,8(sp)
    50201f08:	e062                	sd	s8,0(sp)
    50201f0a:	e486                	sd	ra,72(sp)
    50201f0c:	8baa                	mv	s7,a0
    50201f0e:	0000d997          	auipc	s3,0xd
    50201f12:	f5298993          	addi	s3,s3,-174 # 5020ee60 <mlock_status>
    50201f16:	0000d917          	auipc	s2,0xd
    50201f1a:	d5290913          	addi	s2,s2,-686 # 5020ec68 <mlocks+0x8>
    50201f1e:	4481                	li	s1,0
    50201f20:	0000db17          	auipc	s6,0xd
    50201f24:	d40b0b13          	addi	s6,s6,-704 # 5020ec60 <mlocks>
    50201f28:	4405                	li	s0,1
    50201f2a:	4a85                	li	s5,1
    50201f2c:	5c7d                	li	s8,-1
    50201f2e:	4a41                	li	s4,16
    50201f30:	ff890713          	addi	a4,s2,-8
    50201f34:	0e8727af          	amoswap.w.aqrl	a5,s0,(a4)
    50201f38:	2781                	sext.w	a5,a5
    50201f3a:	ffed                	bnez	a5,50201f34 <check_and_release_locks+0x3e>
    50201f3c:	0009a783          	lw	a5,0(s3)
    50201f40:	03578963          	beq	a5,s5,50201f72 <check_and_release_locks+0x7c>
    50201f44:	00549793          	slli	a5,s1,0x5
    50201f48:	97da                	add	a5,a5,s6
    50201f4a:	0007a023          	sw	zero,0(a5)
    50201f4e:	2485                	addiw	s1,s1,1
    50201f50:	0991                	addi	s3,s3,4
    50201f52:	02090913          	addi	s2,s2,32
    50201f56:	fd449de3          	bne	s1,s4,50201f30 <check_and_release_locks+0x3a>
    50201f5a:	60a6                	ld	ra,72(sp)
    50201f5c:	6406                	ld	s0,64(sp)
    50201f5e:	74e2                	ld	s1,56(sp)
    50201f60:	7942                	ld	s2,48(sp)
    50201f62:	79a2                	ld	s3,40(sp)
    50201f64:	7a02                	ld	s4,32(sp)
    50201f66:	6ae2                	ld	s5,24(sp)
    50201f68:	6b42                	ld	s6,16(sp)
    50201f6a:	6ba2                	ld	s7,8(sp)
    50201f6c:	6c02                	ld	s8,0(sp)
    50201f6e:	6161                	addi	sp,sp,80
    50201f70:	8082                	ret
    50201f72:	01492783          	lw	a5,20(s2)
    50201f76:	fd7797e3          	bne	a5,s7,50201f44 <check_and_release_locks+0x4e>
    50201f7a:	00093503          	ld	a0,0(s2)
    50201f7e:	0009a023          	sw	zero,0(s3)
    50201f82:	01892a23          	sw	s8,20(s2)
    50201f86:	fb250fe3          	beq	a0,s2,50201f44 <check_and_release_locks+0x4e>
    50201f8a:	13a000ef          	jal	502020c4 <do_unblock>
    50201f8e:	bf5d                	j	50201f44 <check_and_release_locks+0x4e>

0000000050201f90 <allocKernelPage>:
    50201f90:	00003797          	auipc	a5,0x3
    50201f94:	9307b783          	ld	a5,-1744(a5) # 502048c0 <kernMemCurr>
    50201f98:	6705                	lui	a4,0x1
    50201f9a:	177d                	addi	a4,a4,-1 # fff <_start-0x50200001>
    50201f9c:	97ba                	add	a5,a5,a4
    50201f9e:	76fd                	lui	a3,0xfffff
    50201fa0:	00c5171b          	slliw	a4,a0,0xc
    50201fa4:	00d7f533          	and	a0,a5,a3
    50201fa8:	00a707b3          	add	a5,a4,a0
    50201fac:	00003717          	auipc	a4,0x3
    50201fb0:	90f73a23          	sd	a5,-1772(a4) # 502048c0 <kernMemCurr>
    50201fb4:	8082                	ret

0000000050201fb6 <allocUserPage>:
    50201fb6:	00003797          	auipc	a5,0x3
    50201fba:	9027b783          	ld	a5,-1790(a5) # 502048b8 <userMemCurr>
    50201fbe:	6705                	lui	a4,0x1
    50201fc0:	177d                	addi	a4,a4,-1 # fff <_start-0x50200001>
    50201fc2:	97ba                	add	a5,a5,a4
    50201fc4:	76fd                	lui	a3,0xfffff
    50201fc6:	00c5171b          	slliw	a4,a0,0xc
    50201fca:	00d7f533          	and	a0,a5,a3
    50201fce:	00a707b3          	add	a5,a4,a0
    50201fd2:	00003717          	auipc	a4,0x3
    50201fd6:	8ef73323          	sd	a5,-1818(a4) # 502048b8 <userMemCurr>
    50201fda:	8082                	ret

0000000050201fdc <do_scheduler>:
    50201fdc:	1141                	addi	sp,sp,-16
    50201fde:	e406                	sd	ra,8(sp)
    50201fe0:	4f5000ef          	jal	50202cd4 <check_sleeping>
    50201fe4:	04822783          	lw	a5,72(tp) # 48 <_start-0x50200fb8>
    50201fe8:	8512                	mv	a0,tp
    50201fea:	17fd                	addi	a5,a5,-1
    50201fec:	efb1                	bnez	a5,50202048 <do_scheduler+0x6c>
    50201fee:	00003797          	auipc	a5,0x3
    50201ff2:	83278793          	addi	a5,a5,-1998 # 50204820 <pid0_pcb>
    50201ff6:	00003697          	auipc	a3,0x3
    50201ffa:	88a68693          	addi	a3,a3,-1910 # 50204880 <ready_queue>
    50201ffe:	02f21863          	bne	tp,a5,5020202e <do_scheduler+0x52>
    50202002:	73bc                	ld	a5,96(a5)
    50202004:	00003717          	auipc	a4,0x3
    50202008:	81c70713          	addi	a4,a4,-2020 # 50204820 <pid0_pcb>
    5020200c:	00d78863          	beq	a5,a3,5020201c <do_scheduler+0x40>
    50202010:	6794                	ld	a3,8(a5)
    50202012:	6390                	ld	a2,0(a5)
    50202014:	fe078713          	addi	a4,a5,-32
    50202018:	e614                	sd	a3,8(a2)
    5020201a:	e290                	sd	a2,0(a3)
    5020201c:	60a2                	ld	ra,8(sp)
    5020201e:	823a                	mv	tp,a4
    50202020:	4785                	li	a5,1
    50202022:	04f22423          	sw	a5,72(tp) # 48 <_start-0x50200fb8>
    50202026:	8592                	mv	a1,tp
    50202028:	0141                	addi	sp,sp,16
    5020202a:	cd2ff06f          	j	502014fc <switch_to>
    5020202e:	77b0                	ld	a2,104(a5)
    50202030:	02020713          	addi	a4,tp,32 # 20 <_start-0x50200fe0>
    50202034:	4589                	li	a1,2
    50202036:	02d23023          	sd	a3,32(tp) # 20 <_start-0x50200fe0>
    5020203a:	02c23423          	sd	a2,40(tp) # 28 <_start-0x50200fd8>
    5020203e:	04b22423          	sw	a1,72(tp) # 48 <_start-0x50200fb8>
    50202042:	f7b8                	sd	a4,104(a5)
    50202044:	e218                	sd	a4,0(a2)
    50202046:	bf75                	j	50202002 <do_scheduler+0x26>
    50202048:	00002797          	auipc	a5,0x2
    5020204c:	7d878793          	addi	a5,a5,2008 # 50204820 <pid0_pcb>
    50202050:	00003697          	auipc	a3,0x3
    50202054:	83068693          	addi	a3,a3,-2000 # 50204880 <ready_queue>
    50202058:	b76d                	j	50202002 <do_scheduler+0x26>

000000005020205a <do_sleep>:
    5020205a:	1101                	addi	sp,sp,-32
    5020205c:	ec06                	sd	ra,24(sp)
    5020205e:	e822                	sd	s0,16(sp)
    50202060:	e426                	sd	s1,8(sp)
    50202062:	04022423          	sw	zero,72(tp) # 48 <_start-0x50200fb8>
    50202066:	84aa                	mv	s1,a0
    50202068:	40f000ef          	jal	50202c76 <get_ticks>
    5020206c:	842a                	mv	s0,a0
    5020206e:	431000ef          	jal	50202c9e <get_time_base>
    50202072:	02049793          	slli	a5,s1,0x20
    50202076:	9381                	srli	a5,a5,0x20
    50202078:	02a787b3          	mul	a5,a5,a0
    5020207c:	00003717          	auipc	a4,0x3
    50202080:	81c73703          	ld	a4,-2020(a4) # 50204898 <sleep_queue+0x8>
    50202084:	00003617          	auipc	a2,0x3
    50202088:	80c60613          	addi	a2,a2,-2036 # 50204890 <sleep_queue>
    5020208c:	02020693          	addi	a3,tp,32 # 20 <_start-0x50200fe0>
    50202090:	02c23023          	sd	a2,32(tp) # 20 <_start-0x50200fe0>
    50202094:	60e2                	ld	ra,24(sp)
    50202096:	64a2                	ld	s1,8(sp)
    50202098:	00003617          	auipc	a2,0x3
    5020209c:	80d63023          	sd	a3,-2048(a2) # 50204898 <sleep_queue+0x8>
    502020a0:	02e23423          	sd	a4,40(tp) # 28 <_start-0x50200fd8>
    502020a4:	00878533          	add	a0,a5,s0
    502020a8:	6442                	ld	s0,16(sp)
    502020aa:	04a23c23          	sd	a0,88(tp) # 58 <_start-0x50200fa8>
    502020ae:	e314                	sd	a3,0(a4)
    502020b0:	6105                	addi	sp,sp,32
    502020b2:	b72d                	j	50201fdc <do_scheduler>

00000000502020b4 <do_block>:
    502020b4:	659c                	ld	a5,8(a1)
    502020b6:	e588                	sd	a0,8(a1)
    502020b8:	e10c                	sd	a1,0(a0)
    502020ba:	e51c                	sd	a5,8(a0)
    502020bc:	e388                	sd	a0,0(a5)
    502020be:	04022423          	sw	zero,72(tp) # 48 <_start-0x50200fb8>
    502020c2:	8082                	ret

00000000502020c4 <do_unblock>:
    502020c4:	6518                	ld	a4,8(a0)
    502020c6:	6114                	ld	a3,0(a0)
    502020c8:	4589                	li	a1,2
    502020ca:	00002617          	auipc	a2,0x2
    502020ce:	7b660613          	addi	a2,a2,1974 # 50204880 <ready_queue>
    502020d2:	e698                	sd	a4,8(a3)
    502020d4:	00002797          	auipc	a5,0x2
    502020d8:	7b47b783          	ld	a5,1972(a5) # 50204888 <ready_queue+0x8>
    502020dc:	e314                	sd	a3,0(a4)
    502020de:	00002717          	auipc	a4,0x2
    502020e2:	7aa73523          	sd	a0,1962(a4) # 50204888 <ready_queue+0x8>
    502020e6:	d50c                	sw	a1,40(a0)
    502020e8:	e51c                	sd	a5,8(a0)
    502020ea:	e110                	sd	a2,0(a0)
    502020ec:	e388                	sd	a0,0(a5)
    502020ee:	8082                	ret

00000000502020f0 <do_exec>:
    502020f0:	7135                	addi	sp,sp,-160
    502020f2:	e14a                	sd	s2,128(sp)
    502020f4:	892a                	mv	s2,a0
    502020f6:	e922                	sd	s0,144(sp)
    502020f8:	e526                	sd	s1,136(sp)
    502020fa:	f8d2                	sd	s4,112(sp)
    502020fc:	fc6e                	sd	s11,56(sp)
    502020fe:	ed06                	sd	ra,152(sp)
    50202100:	fcce                	sd	s3,120(sp)
    50202102:	f4d6                	sd	s5,104(sp)
    50202104:	f0da                	sd	s6,96(sp)
    50202106:	ecde                	sd	s7,88(sp)
    50202108:	e8e2                	sd	s8,80(sp)
    5020210a:	e4e6                	sd	s9,72(sp)
    5020210c:	e0ea                	sd	s10,64(sp)
    5020210e:	1100                	addi	s0,sp,160
    50202110:	8dae                	mv	s11,a1
    50202112:	00001517          	auipc	a0,0x1
    50202116:	70e50513          	addi	a0,a0,1806 # 50203820 <strcat+0x396>
    5020211a:	85ca                	mv	a1,s2
    5020211c:	84b2                	mv	s1,a2
    5020211e:	186010ef          	jal	502032a4 <printk>
    50202122:	0000d797          	auipc	a5,0xd
    50202126:	dbe78793          	addi	a5,a5,-578 # 5020eee0 <pcb+0x40>
    5020212a:	4a01                	li	s4,0
    5020212c:	468d                	li	a3,3
    5020212e:	567d                	li	a2,-1
    50202130:	45c1                	li	a1,16
    50202132:	4798                	lw	a4,8(a5)
    50202134:	02d70263          	beq	a4,a3,50202158 <do_exec+0x68>
    50202138:	4398                	lw	a4,0(a5)
    5020213a:	06078793          	addi	a5,a5,96
    5020213e:	00c70d63          	beq	a4,a2,50202158 <do_exec+0x68>
    50202142:	2a05                	addiw	s4,s4,1
    50202144:	feba17e3          	bne	s4,a1,50202132 <do_exec+0x42>
    50202148:	00001517          	auipc	a0,0x1
    5020214c:	6f850513          	addi	a0,a0,1784 # 50203840 <strcat+0x3b6>
    50202150:	154010ef          	jal	502032a4 <printk>
    50202154:	557d                	li	a0,-1
    50202156:	aaa9                	j	502022b0 <do_exec+0x1c0>
    50202158:	854a                	mv	a0,s2
    5020215a:	aa7ff0ef          	jal	50201c00 <load_task_img>
    5020215e:	f8a43423          	sd	a0,-120(s0)
    50202162:	18050063          	beqz	a0,502022e2 <do_exec+0x1f2>
    50202166:	001a1793          	slli	a5,s4,0x1
    5020216a:	01478cb3          	add	s9,a5,s4
    5020216e:	0c96                	slli	s9,s9,0x5
    50202170:	0000db97          	auipc	s7,0xd
    50202174:	d30b8b93          	addi	s7,s7,-720 # 5020eea0 <pcb>
    50202178:	4505                	li	a0,1
    5020217a:	f6f43c23          	sd	a5,-136(s0)
    5020217e:	019b8c33          	add	s8,s7,s9
    50202182:	e0fff0ef          	jal	50201f90 <allocKernelPage>
    50202186:	00ac3823          	sd	a0,16(s8)
    5020218a:	4505                	li	a0,1
    5020218c:	e2bff0ef          	jal	50201fb6 <allocUserPage>
    50202190:	010c3703          	ld	a4,16(s8)
    50202194:	6785                	lui	a5,0x1
    50202196:	003d9d13          	slli	s10,s11,0x3
    5020219a:	973e                	add	a4,a4,a5
    5020219c:	00f50933          	add	s2,a0,a5
    502021a0:	008d0793          	addi	a5,s10,8
    502021a4:	00ac3c23          	sd	a0,24(s8)
    502021a8:	f8e43023          	sd	a4,-128(s0)
    502021ac:	f6f43823          	sd	a5,-144(s0)
    502021b0:	13b05163          	blez	s11,502022d2 <do_exec+0x1e2>
    502021b4:	01a48ab3          	add	s5,s1,s10
    502021b8:	89a6                	mv	s3,s1
    502021ba:	4b01                	li	s6,0
    502021bc:	0009b503          	ld	a0,0(s3)
    502021c0:	09a1                	addi	s3,s3,8
    502021c2:	1de010ef          	jal	502033a0 <strlen>
    502021c6:	2505                	addiw	a0,a0,1
    502021c8:	01650b3b          	addw	s6,a0,s6
    502021cc:	ff5998e3          	bne	s3,s5,502021bc <do_exec+0xcc>
    502021d0:	00fd0793          	addi	a5,s10,15
    502021d4:	41690933          	sub	s2,s2,s6
    502021d8:	9bc1                	andi	a5,a5,-16
    502021da:	40f10133          	sub	sp,sp,a5
    502021de:	ff897793          	andi	a5,s2,-8
    502021e2:	f6f43423          	sd	a5,-152(s0)
    502021e6:	8b0a                	mv	s6,sp
    502021e8:	898a                	mv	s3,sp
    502021ea:	893e                	mv	s2,a5
    502021ec:	608c                	ld	a1,0(s1)
    502021ee:	854a                	mv	a0,s2
    502021f0:	04a1                	addi	s1,s1,8
    502021f2:	232010ef          	jal	50203424 <strcpy>
    502021f6:	ff84b503          	ld	a0,-8(s1)
    502021fa:	0129b023          	sd	s2,0(s3)
    502021fe:	09a1                	addi	s3,s3,8
    50202200:	1a0010ef          	jal	502033a0 <strlen>
    50202204:	2505                	addiw	a0,a0,1
    50202206:	992a                	add	s2,s2,a0
    50202208:	ff5492e3          	bne	s1,s5,502021ec <do_exec+0xfc>
    5020220c:	f7043703          	ld	a4,-144(s0)
    50202210:	f6843783          	ld	a5,-152(s0)
    50202214:	8f99                	sub	a5,a5,a4
    50202216:	f807f793          	andi	a5,a5,-128
    5020221a:	875a                	mv	a4,s6
    5020221c:	40e785b3          	sub	a1,a5,a4
    50202220:	9b6a                	add	s6,s6,s10
    50202222:	6310                	ld	a2,0(a4)
    50202224:	00e586b3          	add	a3,a1,a4
    50202228:	0721                	addi	a4,a4,8
    5020222a:	e290                	sd	a2,0(a3)
    5020222c:	feeb1be3          	bne	s6,a4,50202222 <do_exec+0x132>
    50202230:	f7843703          	ld	a4,-136(s0)
    50202234:	00002697          	auipc	a3,0x2
    50202238:	6946a683          	lw	a3,1684(a3) # 502048c8 <process_id>
    5020223c:	9d3e                	add	s10,s10,a5
    5020223e:	9752                	add	a4,a4,s4
    50202240:	0716                	slli	a4,a4,0x5
    50202242:	000d3023          	sd	zero,0(s10)
    50202246:	00eb84b3          	add	s1,s7,a4
    5020224a:	c0b4                	sw	a3,64(s1)
    5020224c:	04022583          	lw	a1,64(tp) # 40 <_start-0x50200fc0>
    50202250:	4609                	li	a2,2
    50202252:	c4b0                	sw	a2,72(s1)
    50202254:	c0ec                	sw	a1,68(s1)
    50202256:	030c8593          	addi	a1,s9,48
    5020225a:	95de                	add	a1,a1,s7
    5020225c:	0404b823          	sd	zero,80(s1)
    50202260:	f8043503          	ld	a0,-128(s0)
    50202264:	2685                	addiw	a3,a3,1
    50202266:	f8843603          	ld	a2,-120(s0)
    5020226a:	02bc3823          	sd	a1,48(s8)
    5020226e:	02bc3c23          	sd	a1,56(s8)
    50202272:	00002597          	auipc	a1,0x2
    50202276:	64d5ab23          	sw	a3,1622(a1) # 502048c8 <process_id>
    5020227a:	876e                	mv	a4,s11
    5020227c:	85be                	mv	a1,a5
    5020227e:	86e2                	mv	a3,s8
    50202280:	bdcff0ef          	jal	5020165c <init_pcb_stack>
    50202284:	00002797          	auipc	a5,0x2
    50202288:	6047b783          	ld	a5,1540(a5) # 50204888 <ready_queue+0x8>
    5020228c:	020c8c93          	addi	s9,s9,32
    50202290:	9be6                	add	s7,s7,s9
    50202292:	00002717          	auipc	a4,0x2
    50202296:	5ee70713          	addi	a4,a4,1518 # 50204880 <ready_queue>
    5020229a:	40a8                	lw	a0,64(s1)
    5020229c:	02ec3023          	sd	a4,32(s8)
    502022a0:	02fc3423          	sd	a5,40(s8)
    502022a4:	00002717          	auipc	a4,0x2
    502022a8:	5f773223          	sd	s7,1508(a4) # 50204888 <ready_queue+0x8>
    502022ac:	0177b023          	sd	s7,0(a5)
    502022b0:	f6040113          	addi	sp,s0,-160
    502022b4:	60ea                	ld	ra,152(sp)
    502022b6:	644a                	ld	s0,144(sp)
    502022b8:	64aa                	ld	s1,136(sp)
    502022ba:	690a                	ld	s2,128(sp)
    502022bc:	79e6                	ld	s3,120(sp)
    502022be:	7a46                	ld	s4,112(sp)
    502022c0:	7aa6                	ld	s5,104(sp)
    502022c2:	7b06                	ld	s6,96(sp)
    502022c4:	6be6                	ld	s7,88(sp)
    502022c6:	6c46                	ld	s8,80(sp)
    502022c8:	6ca6                	ld	s9,72(sp)
    502022ca:	6d06                	ld	s10,64(sp)
    502022cc:	7de2                	ld	s11,56(sp)
    502022ce:	610d                	addi	sp,sp,160
    502022d0:	8082                	ret
    502022d2:	ff897793          	andi	a5,s2,-8
    502022d6:	008d0713          	addi	a4,s10,8
    502022da:	8f99                	sub	a5,a5,a4
    502022dc:	f807f793          	andi	a5,a5,-128
    502022e0:	bf81                	j	50202230 <do_exec+0x140>
    502022e2:	85ca                	mv	a1,s2
    502022e4:	00001517          	auipc	a0,0x1
    502022e8:	1e450513          	addi	a0,a0,484 # 502034c8 <strcat+0x3e>
    502022ec:	7b9000ef          	jal	502032a4 <printk>
    502022f0:	557d                	li	a0,-1
    502022f2:	bf7d                	j	502022b0 <do_exec+0x1c0>

00000000502022f4 <do_exit>:
    502022f4:	03023783          	ld	a5,48(tp) # 30 <_start-0x50200fd0>
    502022f8:	470d                	li	a4,3
    502022fa:	04e22423          	sw	a4,72(tp) # 48 <_start-0x50200fb8>
    502022fe:	03020813          	addi	a6,tp,48 # 30 <_start-0x50200fd0>
    50202302:	8512                	mv	a0,tp
    50202304:	02f80a63          	beq	a6,a5,50202338 <do_exit+0x44>
    50202308:	00002597          	auipc	a1,0x2
    5020230c:	51858593          	addi	a1,a1,1304 # 50204820 <pid0_pcb>
    50202310:	00002317          	auipc	t1,0x2
    50202314:	57030313          	addi	t1,t1,1392 # 50204880 <ready_queue>
    50202318:	4889                	li	a7,2
    5020231a:	6794                	ld	a3,8(a5)
    5020231c:	6390                	ld	a2,0(a5)
    5020231e:	e614                	sd	a3,8(a2)
    50202320:	75b8                	ld	a4,104(a1)
    50202322:	e290                	sd	a2,0(a3)
    50202324:	f5bc                	sd	a5,104(a1)
    50202326:	0317a423          	sw	a7,40(a5)
    5020232a:	e798                	sd	a4,8(a5)
    5020232c:	0067b023          	sd	t1,0(a5)
    50202330:	e31c                	sd	a5,0(a4)
    50202332:	791c                	ld	a5,48(a0)
    50202334:	ff0793e3          	bne	a5,a6,5020231a <do_exit+0x26>
    50202338:	b155                	j	50201fdc <do_scheduler>

000000005020233a <do_kill>:
    5020233a:	02a05063          	blez	a0,5020235a <do_kill+0x20>
    5020233e:	0000d797          	auipc	a5,0xd
    50202342:	ba278793          	addi	a5,a5,-1118 # 5020eee0 <pcb+0x40>
    50202346:	4701                	li	a4,0
    50202348:	4641                	li	a2,16
    5020234a:	4394                	lw	a3,0(a5)
    5020234c:	06078793          	addi	a5,a5,96
    50202350:	00a68863          	beq	a3,a0,50202360 <do_kill+0x26>
    50202354:	2705                	addiw	a4,a4,1
    50202356:	fec71ae3          	bne	a4,a2,5020234a <do_kill+0x10>
    5020235a:	4701                	li	a4,0
    5020235c:	853a                	mv	a0,a4
    5020235e:	8082                	ret
    50202360:	00171793          	slli	a5,a4,0x1
    50202364:	97ba                	add	a5,a5,a4
    50202366:	0796                	slli	a5,a5,0x5
    50202368:	0000d817          	auipc	a6,0xd
    5020236c:	b3880813          	addi	a6,a6,-1224 # 5020eea0 <pcb>
    50202370:	00f805b3          	add	a1,a6,a5
    50202374:	45b0                	lw	a2,72(a1)
    50202376:	468d                	li	a3,3
    50202378:	4701                	li	a4,0
    5020237a:	fed601e3          	beq	a2,a3,5020235c <do_kill+0x22>
    5020237e:	1101                	addi	sp,sp,-32
    50202380:	e43e                	sd	a5,8(sp)
    50202382:	e02e                	sd	a1,0(sp)
    50202384:	ec06                	sd	ra,24(sp)
    50202386:	b71ff0ef          	jal	50201ef6 <check_and_release_locks>
    5020238a:	6582                	ld	a1,0(sp)
    5020238c:	67a2                	ld	a5,8(sp)
    5020238e:	0000d817          	auipc	a6,0xd
    50202392:	b1280813          	addi	a6,a6,-1262 # 5020eea0 <pcb>
    50202396:	7998                	ld	a4,48(a1)
    50202398:	03078793          	addi	a5,a5,48
    5020239c:	468d                	li	a3,3
    5020239e:	0485ae03          	lw	t3,72(a1)
    502023a2:	983e                	add	a6,a6,a5
    502023a4:	c5b4                	sw	a3,72(a1)
    502023a6:	00002517          	auipc	a0,0x2
    502023aa:	47a50513          	addi	a0,a0,1146 # 50204820 <pid0_pcb>
    502023ae:	00002317          	auipc	t1,0x2
    502023b2:	4d230313          	addi	t1,t1,1234 # 50204880 <ready_queue>
    502023b6:	4889                	li	a7,2
    502023b8:	02e80263          	beq	a6,a4,502023dc <do_kill+0xa2>
    502023bc:	799c                	ld	a5,48(a1)
    502023be:	6794                	ld	a3,8(a5)
    502023c0:	6390                	ld	a2,0(a5)
    502023c2:	e614                	sd	a3,8(a2)
    502023c4:	7538                	ld	a4,104(a0)
    502023c6:	e290                	sd	a2,0(a3)
    502023c8:	f53c                	sd	a5,104(a0)
    502023ca:	0317a423          	sw	a7,40(a5)
    502023ce:	e798                	sd	a4,8(a5)
    502023d0:	0067b023          	sd	t1,0(a5)
    502023d4:	e31c                	sd	a5,0(a4)
    502023d6:	799c                	ld	a5,48(a1)
    502023d8:	fef812e3          	bne	a6,a5,502023bc <do_kill+0x82>
    502023dc:	00458f63          	beq	a1,tp,502023fa <do_kill+0xc0>
    502023e0:	ffde7e13          	andi	t3,t3,-3
    502023e4:	000e1663          	bnez	t3,502023f0 <do_kill+0xb6>
    502023e8:	759c                	ld	a5,40(a1)
    502023ea:	7198                	ld	a4,32(a1)
    502023ec:	e71c                	sd	a5,8(a4)
    502023ee:	e398                	sd	a4,0(a5)
    502023f0:	60e2                	ld	ra,24(sp)
    502023f2:	4705                	li	a4,1
    502023f4:	853a                	mv	a0,a4
    502023f6:	6105                	addi	sp,sp,32
    502023f8:	8082                	ret
    502023fa:	be3ff0ef          	jal	50201fdc <do_scheduler>
    502023fe:	bfcd                	j	502023f0 <do_kill+0xb6>

0000000050202400 <do_waitpid>:
    50202400:	0000d797          	auipc	a5,0xd
    50202404:	ae078793          	addi	a5,a5,-1312 # 5020eee0 <pcb+0x40>
    50202408:	4701                	li	a4,0
    5020240a:	4641                	li	a2,16
    5020240c:	4394                	lw	a3,0(a5)
    5020240e:	06078793          	addi	a5,a5,96
    50202412:	00a68763          	beq	a3,a0,50202420 <do_waitpid+0x20>
    50202416:	2705                	addiw	a4,a4,1
    50202418:	fec71ae3          	bne	a4,a2,5020240c <do_waitpid+0xc>
    5020241c:	557d                	li	a0,-1
    5020241e:	8082                	ret
    50202420:	00171613          	slli	a2,a4,0x1
    50202424:	00e607b3          	add	a5,a2,a4
    50202428:	0796                	slli	a5,a5,0x5
    5020242a:	0000d597          	auipc	a1,0xd
    5020242e:	a7658593          	addi	a1,a1,-1418 # 5020eea0 <pcb>
    50202432:	00f586b3          	add	a3,a1,a5
    50202436:	0446a883          	lw	a7,68(a3)
    5020243a:	04022803          	lw	a6,64(tp) # 40 <_start-0x50200fc0>
    5020243e:	fd089fe3          	bne	a7,a6,5020241c <do_waitpid+0x1c>
    50202442:	0486a883          	lw	a7,72(a3)
    50202446:	480d                	li	a6,3
    50202448:	05088e63          	beq	a7,a6,502024a4 <do_waitpid+0xa4>
    5020244c:	7179                	addi	sp,sp,-48
    5020244e:	f406                	sd	ra,40(sp)
    50202450:	0386b883          	ld	a7,56(a3)
    50202454:	02020313          	addi	t1,tp,32 # 20 <_start-0x50200fe0>
    50202458:	04022423          	sw	zero,72(tp) # 48 <_start-0x50200fb8>
    5020245c:	03078793          	addi	a5,a5,48
    50202460:	0266bc23          	sd	t1,56(a3)
    50202464:	97ae                	add	a5,a5,a1
    50202466:	02f23023          	sd	a5,32(tp) # 20 <_start-0x50200fe0>
    5020246a:	03123423          	sd	a7,40(tp) # 28 <_start-0x50200fd8>
    5020246e:	0068b023          	sd	t1,0(a7)
    50202472:	ec2a                	sd	a0,24(sp)
    50202474:	e832                	sd	a2,16(sp)
    50202476:	e43a                	sd	a4,8(sp)
    50202478:	e036                	sd	a3,0(sp)
    5020247a:	b63ff0ef          	jal	50201fdc <do_scheduler>
    5020247e:	6642                	ld	a2,16(sp)
    50202480:	6722                	ld	a4,8(sp)
    50202482:	6682                	ld	a3,0(sp)
    50202484:	70a2                	ld	ra,40(sp)
    50202486:	963a                	add	a2,a2,a4
    50202488:	0000d597          	auipc	a1,0xd
    5020248c:	a1858593          	addi	a1,a1,-1512 # 5020eea0 <pcb>
    50202490:	0616                	slli	a2,a2,0x5
    50202492:	480d                	li	a6,3
    50202494:	95b2                	add	a1,a1,a2
    50202496:	57fd                	li	a5,-1
    50202498:	0506a423          	sw	a6,72(a3)
    5020249c:	c1bc                	sw	a5,64(a1)
    5020249e:	6562                	ld	a0,24(sp)
    502024a0:	6145                	addi	sp,sp,48
    502024a2:	8082                	ret
    502024a4:	963a                	add	a2,a2,a4
    502024a6:	0616                	slli	a2,a2,0x5
    502024a8:	95b2                	add	a1,a1,a2
    502024aa:	57fd                	li	a5,-1
    502024ac:	c1bc                	sw	a5,64(a1)
    502024ae:	8082                	ret

00000000502024b0 <do_process_show>:
    502024b0:	7139                	addi	sp,sp,-64
    502024b2:	00001517          	auipc	a0,0x1
    502024b6:	3b650513          	addi	a0,a0,950 # 50203868 <strcat+0x3de>
    502024ba:	f822                	sd	s0,48(sp)
    502024bc:	f426                	sd	s1,40(sp)
    502024be:	f04a                	sd	s2,32(sp)
    502024c0:	ec4e                	sd	s3,24(sp)
    502024c2:	e852                	sd	s4,16(sp)
    502024c4:	e456                	sd	s5,8(sp)
    502024c6:	e05a                	sd	s6,0(sp)
    502024c8:	fc06                	sd	ra,56(sp)
    502024ca:	0000d497          	auipc	s1,0xd
    502024ce:	a1648493          	addi	s1,s1,-1514 # 5020eee0 <pcb+0x40>
    502024d2:	5d3000ef          	jal	502032a4 <printk>
    502024d6:	4401                	li	s0,0
    502024d8:	59fd                	li	s3,-1
    502024da:	4a0d                	li	s4,3
    502024dc:	4b09                	li	s6,2
    502024de:	00001a97          	auipc	s5,0x1
    502024e2:	51aa8a93          	addi	s5,s5,1306 # 502039f8 <CSWTCH.47>
    502024e6:	4941                	li	s2,16
    502024e8:	4090                	lw	a2,0(s1)
    502024ea:	85a2                	mv	a1,s0
    502024ec:	00001517          	auipc	a0,0x1
    502024f0:	39450513          	addi	a0,a0,916 # 50203880 <strcat+0x3f6>
    502024f4:	03360363          	beq	a2,s3,5020251a <do_process_show+0x6a>
    502024f8:	449c                	lw	a5,8(s1)
    502024fa:	00001697          	auipc	a3,0x1
    502024fe:	36668693          	addi	a3,a3,870 # 50203860 <strcat+0x3d6>
    50202502:	01478c63          	beq	a5,s4,5020251a <do_process_show+0x6a>
    50202506:	02079813          	slli	a6,a5,0x20
    5020250a:	01d85713          	srli	a4,a6,0x1d
    5020250e:	9756                	add	a4,a4,s5
    50202510:	00fb6363          	bltu	s6,a5,50202516 <do_process_show+0x66>
    50202514:	6314                	ld	a3,0(a4)
    50202516:	58f000ef          	jal	502032a4 <printk>
    5020251a:	2405                	addiw	s0,s0,1
    5020251c:	06048493          	addi	s1,s1,96
    50202520:	fd2414e3          	bne	s0,s2,502024e8 <do_process_show+0x38>
    50202524:	70e2                	ld	ra,56(sp)
    50202526:	7442                	ld	s0,48(sp)
    50202528:	74a2                	ld	s1,40(sp)
    5020252a:	7902                	ld	s2,32(sp)
    5020252c:	69e2                	ld	s3,24(sp)
    5020252e:	6a42                	ld	s4,16(sp)
    50202530:	6aa2                	ld	s5,8(sp)
    50202532:	6b02                	ld	s6,0(sp)
    50202534:	6121                	addi	sp,sp,64
    50202536:	8082                	ret

0000000050202538 <do_getpid>:
    50202538:	04022503          	lw	a0,64(tp) # 40 <_start-0x50200fc0>
    5020253c:	8082                	ret

000000005020253e <init_barriers>:
    5020253e:	577d                	li	a4,-1
    50202540:	9301                	srli	a4,a4,0x20
    50202542:	0000d797          	auipc	a5,0xd
    50202546:	f6e78793          	addi	a5,a5,-146 # 5020f4b0 <barriers+0x10>
    5020254a:	0000d697          	auipc	a3,0xd
    5020254e:	16668693          	addi	a3,a3,358 # 5020f6b0 <conditions+0x10>
    50202552:	fee7b823          	sd	a4,-16(a5)
    50202556:	fe07ac23          	sw	zero,-8(a5)
    5020255a:	e39c                	sd	a5,0(a5)
    5020255c:	e79c                	sd	a5,8(a5)
    5020255e:	02078793          	addi	a5,a5,32
    50202562:	fed798e3          	bne	a5,a3,50202552 <init_barriers+0x14>
    50202566:	8082                	ret

0000000050202568 <do_barrier_init>:
    50202568:	0000d617          	auipc	a2,0xd
    5020256c:	f3860613          	addi	a2,a2,-200 # 5020f4a0 <barriers>
    50202570:	88b2                	mv	a7,a2
    50202572:	8732                	mv	a4,a2
    50202574:	4781                	li	a5,0
    50202576:	4841                	li	a6,16
    50202578:	4314                	lw	a3,0(a4)
    5020257a:	02070713          	addi	a4,a4,32
    5020257e:	02a68163          	beq	a3,a0,502025a0 <do_barrier_init+0x38>
    50202582:	2785                	addiw	a5,a5,1
    50202584:	ff079ae3          	bne	a5,a6,50202578 <do_barrier_init+0x10>
    50202588:	4781                	li	a5,0
    5020258a:	56fd                	li	a3,-1
    5020258c:	4841                	li	a6,16
    5020258e:	4218                	lw	a4,0(a2)
    50202590:	02060613          	addi	a2,a2,32
    50202594:	00d70863          	beq	a4,a3,502025a4 <do_barrier_init+0x3c>
    50202598:	2785                	addiw	a5,a5,1
    5020259a:	ff079ae3          	bne	a5,a6,5020258e <do_barrier_init+0x26>
    5020259e:	57fd                	li	a5,-1
    502025a0:	853e                	mv	a0,a5
    502025a2:	8082                	ret
    502025a4:	00579693          	slli	a3,a5,0x5
    502025a8:	01068613          	addi	a2,a3,16
    502025ac:	0000d717          	auipc	a4,0xd
    502025b0:	8f470713          	addi	a4,a4,-1804 # 5020eea0 <pcb>
    502025b4:	9736                	add	a4,a4,a3
    502025b6:	98b2                	add	a7,a7,a2
    502025b8:	60a72023          	sw	a0,1536(a4)
    502025bc:	61173823          	sd	a7,1552(a4)
    502025c0:	61173c23          	sd	a7,1560(a4)
    502025c4:	60b72223          	sw	a1,1540(a4)
    502025c8:	60072423          	sw	zero,1544(a4)
    502025cc:	853e                	mv	a0,a5
    502025ce:	8082                	ret

00000000502025d0 <do_barrier_wait>:
    502025d0:	47bd                	li	a5,15
    502025d2:	06a7e863          	bltu	a5,a0,50202642 <do_barrier_wait+0x72>
    502025d6:	0516                	slli	a0,a0,0x5
    502025d8:	0000d597          	auipc	a1,0xd
    502025dc:	8c858593          	addi	a1,a1,-1848 # 5020eea0 <pcb>
    502025e0:	95aa                	add	a1,a1,a0
    502025e2:	6085a783          	lw	a5,1544(a1)
    502025e6:	6045a703          	lw	a4,1540(a1)
    502025ea:	0000d697          	auipc	a3,0xd
    502025ee:	ec668693          	addi	a3,a3,-314 # 5020f4b0 <barriers+0x10>
    502025f2:	2785                	addiw	a5,a5,1
    502025f4:	60f5a423          	sw	a5,1544(a1)
    502025f8:	9536                	add	a0,a0,a3
    502025fa:	04e7c563          	blt	a5,a4,50202644 <do_barrier_wait+0x74>
    502025fe:	6105b783          	ld	a5,1552(a1)
    50202602:	6005a423          	sw	zero,1544(a1)
    50202606:	02a78e63          	beq	a5,a0,50202642 <do_barrier_wait+0x72>
    5020260a:	00002817          	auipc	a6,0x2
    5020260e:	21680813          	addi	a6,a6,534 # 50204820 <pid0_pcb>
    50202612:	00002317          	auipc	t1,0x2
    50202616:	26e30313          	addi	t1,t1,622 # 50204880 <ready_queue>
    5020261a:	4889                	li	a7,2
    5020261c:	6794                	ld	a3,8(a5)
    5020261e:	6390                	ld	a2,0(a5)
    50202620:	e614                	sd	a3,8(a2)
    50202622:	06883703          	ld	a4,104(a6)
    50202626:	e290                	sd	a2,0(a3)
    50202628:	06f83423          	sd	a5,104(a6)
    5020262c:	0317a423          	sw	a7,40(a5)
    50202630:	e798                	sd	a4,8(a5)
    50202632:	0067b023          	sd	t1,0(a5)
    50202636:	e31c                	sd	a5,0(a4)
    50202638:	6105b783          	ld	a5,1552(a1)
    5020263c:	fea790e3          	bne	a5,a0,5020261c <do_barrier_wait+0x4c>
    50202640:	8082                	ret
    50202642:	8082                	ret
    50202644:	6185b783          	ld	a5,1560(a1)
    50202648:	02020713          	addi	a4,tp,32 # 20 <_start-0x50200fe0>
    5020264c:	60e5bc23          	sd	a4,1560(a1)
    50202650:	02f23423          	sd	a5,40(tp) # 28 <_start-0x50200fd8>
    50202654:	02a23023          	sd	a0,32(tp) # 20 <_start-0x50200fe0>
    50202658:	e398                	sd	a4,0(a5)
    5020265a:	04022423          	sw	zero,72(tp) # 48 <_start-0x50200fb8>
    5020265e:	babd                	j	50201fdc <do_scheduler>

0000000050202660 <do_barrier_destroy>:
    50202660:	47bd                	li	a5,15
    50202662:	02a7e263          	bltu	a5,a0,50202686 <do_barrier_destroy+0x26>
    50202666:	0516                	slli	a0,a0,0x5
    50202668:	0000d717          	auipc	a4,0xd
    5020266c:	e3870713          	addi	a4,a4,-456 # 5020f4a0 <barriers>
    50202670:	56fd                	li	a3,-1
    50202672:	972a                	add	a4,a4,a0
    50202674:	9281                	srli	a3,a3,0x20
    50202676:	0000d797          	auipc	a5,0xd
    5020267a:	82a78793          	addi	a5,a5,-2006 # 5020eea0 <pcb>
    5020267e:	e314                	sd	a3,0(a4)
    50202680:	97aa                	add	a5,a5,a0
    50202682:	6007a423          	sw	zero,1544(a5)
    50202686:	8082                	ret

0000000050202688 <init_conditions>:
    50202688:	0000d797          	auipc	a5,0xd
    5020268c:	02078793          	addi	a5,a5,32 # 5020f6a8 <conditions+0x8>
    50202690:	0000d697          	auipc	a3,0xd
    50202694:	19868693          	addi	a3,a3,408 # 5020f828 <mboxes+0x8>
    50202698:	577d                	li	a4,-1
    5020269a:	fee7ac23          	sw	a4,-8(a5)
    5020269e:	e39c                	sd	a5,0(a5)
    502026a0:	e79c                	sd	a5,8(a5)
    502026a2:	07e1                	addi	a5,a5,24
    502026a4:	fed79be3          	bne	a5,a3,5020269a <init_conditions+0x12>
    502026a8:	8082                	ret

00000000502026aa <do_condition_init>:
    502026aa:	0000d617          	auipc	a2,0xd
    502026ae:	ff660613          	addi	a2,a2,-10 # 5020f6a0 <conditions>
    502026b2:	8832                	mv	a6,a2
    502026b4:	8732                	mv	a4,a2
    502026b6:	4781                	li	a5,0
    502026b8:	45c1                	li	a1,16
    502026ba:	4314                	lw	a3,0(a4)
    502026bc:	0761                	addi	a4,a4,24
    502026be:	02a68063          	beq	a3,a0,502026de <do_condition_init+0x34>
    502026c2:	2785                	addiw	a5,a5,1
    502026c4:	feb79be3          	bne	a5,a1,502026ba <do_condition_init+0x10>
    502026c8:	4781                	li	a5,0
    502026ca:	56fd                	li	a3,-1
    502026cc:	45c1                	li	a1,16
    502026ce:	4218                	lw	a4,0(a2)
    502026d0:	0661                	addi	a2,a2,24
    502026d2:	00d70863          	beq	a4,a3,502026e2 <do_condition_init+0x38>
    502026d6:	2785                	addiw	a5,a5,1
    502026d8:	feb79be3          	bne	a5,a1,502026ce <do_condition_init+0x24>
    502026dc:	57fd                	li	a5,-1
    502026de:	853e                	mv	a0,a5
    502026e0:	8082                	ret
    502026e2:	00179713          	slli	a4,a5,0x1
    502026e6:	973e                	add	a4,a4,a5
    502026e8:	070e                	slli	a4,a4,0x3
    502026ea:	00870613          	addi	a2,a4,8
    502026ee:	0000d697          	auipc	a3,0xd
    502026f2:	7b268693          	addi	a3,a3,1970 # 5020fea0 <mboxes+0x680>
    502026f6:	9736                	add	a4,a4,a3
    502026f8:	9832                	add	a6,a6,a2
    502026fa:	80a72023          	sw	a0,-2048(a4)
    502026fe:	81073423          	sd	a6,-2040(a4)
    50202702:	81073823          	sd	a6,-2032(a4)
    50202706:	853e                	mv	a0,a5
    50202708:	8082                	ret

000000005020270a <do_condition_wait>:
    5020270a:	47bd                	li	a5,15
    5020270c:	00a7f363          	bgeu	a5,a0,50202712 <do_condition_wait+0x8>
    50202710:	8082                	ret
    50202712:	00151793          	slli	a5,a0,0x1
    50202716:	97aa                	add	a5,a5,a0
    50202718:	078e                	slli	a5,a5,0x3
    5020271a:	0000d717          	auipc	a4,0xd
    5020271e:	78670713          	addi	a4,a4,1926 # 5020fea0 <mboxes+0x680>
    50202722:	973e                	add	a4,a4,a5
    50202724:	1101                	addi	sp,sp,-32
    50202726:	81073683          	ld	a3,-2032(a4)
    5020272a:	ec06                	sd	ra,24(sp)
    5020272c:	02020613          	addi	a2,tp,32 # 20 <_start-0x50200fe0>
    50202730:	0000d517          	auipc	a0,0xd
    50202734:	f7850513          	addi	a0,a0,-136 # 5020f6a8 <conditions+0x8>
    50202738:	80c73823          	sd	a2,-2032(a4)
    5020273c:	97aa                	add	a5,a5,a0
    5020273e:	02f23023          	sd	a5,32(tp) # 20 <_start-0x50200fe0>
    50202742:	02d23423          	sd	a3,40(tp) # 28 <_start-0x50200fd8>
    50202746:	e290                	sd	a2,0(a3)
    50202748:	852e                	mv	a0,a1
    5020274a:	04022423          	sw	zero,72(tp) # 48 <_start-0x50200fb8>
    5020274e:	e42e                	sd	a1,8(sp)
    50202750:	f30ff0ef          	jal	50201e80 <do_mutex_lock_release>
    50202754:	889ff0ef          	jal	50201fdc <do_scheduler>
    50202758:	6522                	ld	a0,8(sp)
    5020275a:	60e2                	ld	ra,24(sp)
    5020275c:	6105                	addi	sp,sp,32
    5020275e:	ea4ff06f          	j	50201e02 <do_mutex_lock_acquire>

0000000050202762 <do_condition_signal>:
    50202762:	47bd                	li	a5,15
    50202764:	04a7e963          	bltu	a5,a0,502027b6 <do_condition_signal+0x54>
    50202768:	00151793          	slli	a5,a0,0x1
    5020276c:	953e                	add	a0,a0,a5
    5020276e:	050e                	slli	a0,a0,0x3
    50202770:	0000d797          	auipc	a5,0xd
    50202774:	73078793          	addi	a5,a5,1840 # 5020fea0 <mboxes+0x680>
    50202778:	97aa                	add	a5,a5,a0
    5020277a:	8087b783          	ld	a5,-2040(a5)
    5020277e:	0000d717          	auipc	a4,0xd
    50202782:	f2a70713          	addi	a4,a4,-214 # 5020f6a8 <conditions+0x8>
    50202786:	953a                	add	a0,a0,a4
    50202788:	02a78763          	beq	a5,a0,502027b6 <do_condition_signal+0x54>
    5020278c:	6794                	ld	a3,8(a5)
    5020278e:	6390                	ld	a2,0(a5)
    50202790:	4509                	li	a0,2
    50202792:	00002597          	auipc	a1,0x2
    50202796:	0ee58593          	addi	a1,a1,238 # 50204880 <ready_queue>
    5020279a:	e614                	sd	a3,8(a2)
    5020279c:	00002717          	auipc	a4,0x2
    502027a0:	0ec73703          	ld	a4,236(a4) # 50204888 <ready_queue+0x8>
    502027a4:	e290                	sd	a2,0(a3)
    502027a6:	00002697          	auipc	a3,0x2
    502027aa:	0ef6b123          	sd	a5,226(a3) # 50204888 <ready_queue+0x8>
    502027ae:	e798                	sd	a4,8(a5)
    502027b0:	d788                	sw	a0,40(a5)
    502027b2:	e38c                	sd	a1,0(a5)
    502027b4:	e31c                	sd	a5,0(a4)
    502027b6:	8082                	ret

00000000502027b8 <do_condition_broadcast>:
    502027b8:	47bd                	li	a5,15
    502027ba:	04a7ed63          	bltu	a5,a0,50202814 <do_condition_broadcast+0x5c>
    502027be:	00151593          	slli	a1,a0,0x1
    502027c2:	95aa                	add	a1,a1,a0
    502027c4:	058e                	slli	a1,a1,0x3
    502027c6:	0000d817          	auipc	a6,0xd
    502027ca:	6da80813          	addi	a6,a6,1754 # 5020fea0 <mboxes+0x680>
    502027ce:	982e                	add	a6,a6,a1
    502027d0:	80883783          	ld	a5,-2040(a6)
    502027d4:	0000d717          	auipc	a4,0xd
    502027d8:	ed470713          	addi	a4,a4,-300 # 5020f6a8 <conditions+0x8>
    502027dc:	95ba                	add	a1,a1,a4
    502027de:	02f58b63          	beq	a1,a5,50202814 <do_condition_broadcast+0x5c>
    502027e2:	00002517          	auipc	a0,0x2
    502027e6:	03e50513          	addi	a0,a0,62 # 50204820 <pid0_pcb>
    502027ea:	00002317          	auipc	t1,0x2
    502027ee:	09630313          	addi	t1,t1,150 # 50204880 <ready_queue>
    502027f2:	4889                	li	a7,2
    502027f4:	6794                	ld	a3,8(a5)
    502027f6:	6390                	ld	a2,0(a5)
    502027f8:	e614                	sd	a3,8(a2)
    502027fa:	7538                	ld	a4,104(a0)
    502027fc:	e290                	sd	a2,0(a3)
    502027fe:	f53c                	sd	a5,104(a0)
    50202800:	0317a423          	sw	a7,40(a5)
    50202804:	e798                	sd	a4,8(a5)
    50202806:	0067b023          	sd	t1,0(a5)
    5020280a:	e31c                	sd	a5,0(a4)
    5020280c:	80883783          	ld	a5,-2040(a6)
    50202810:	feb792e3          	bne	a5,a1,502027f4 <do_condition_broadcast+0x3c>
    50202814:	8082                	ret

0000000050202816 <do_condition_destroy>:
    50202816:	47bd                	li	a5,15
    50202818:	00a7ee63          	bltu	a5,a0,50202834 <do_condition_destroy+0x1e>
    5020281c:	00151793          	slli	a5,a0,0x1
    50202820:	97aa                	add	a5,a5,a0
    50202822:	0000d717          	auipc	a4,0xd
    50202826:	67e70713          	addi	a4,a4,1662 # 5020fea0 <mboxes+0x680>
    5020282a:	078e                	slli	a5,a5,0x3
    5020282c:	97ba                	add	a5,a5,a4
    5020282e:	577d                	li	a4,-1
    50202830:	80e7a023          	sw	a4,-2048(a5)
    50202834:	8082                	ret

0000000050202836 <init_mbox>:
    50202836:	1101                	addi	sp,sp,-32
    50202838:	e822                	sd	s0,16(sp)
    5020283a:	e426                	sd	s1,8(sp)
    5020283c:	ec06                	sd	ra,24(sp)
    5020283e:	0000d417          	auipc	s0,0xd
    50202842:	05a40413          	addi	s0,s0,90 # 5020f898 <mboxes+0x78>
    50202846:	0000e497          	auipc	s1,0xe
    5020284a:	9d248493          	addi	s1,s1,-1582 # 50210218 <syscall+0x78>
    5020284e:	ff840513          	addi	a0,s0,-8
    50202852:	f8040423          	sb	zero,-120(s0)
    50202856:	fe043423          	sd	zero,-24(s0)
    5020285a:	fe043823          	sd	zero,-16(s0)
    5020285e:	d10ff0ef          	jal	50201d6e <spin_lock_init>
    50202862:	01040793          	addi	a5,s0,16
    50202866:	e000                	sd	s0,0(s0)
    50202868:	e400                	sd	s0,8(s0)
    5020286a:	e81c                	sd	a5,16(s0)
    5020286c:	ec1c                	sd	a5,24(s0)
    5020286e:	09840413          	addi	s0,s0,152
    50202872:	fc941ee3          	bne	s0,s1,5020284e <init_mbox+0x18>
    50202876:	60e2                	ld	ra,24(sp)
    50202878:	6442                	ld	s0,16(sp)
    5020287a:	64a2                	ld	s1,8(sp)
    5020287c:	6105                	addi	sp,sp,32
    5020287e:	8082                	ret

0000000050202880 <do_mbox_open>:
    50202880:	7139                	addi	sp,sp,-64
    50202882:	e456                	sd	s5,8(sp)
    50202884:	0000da97          	auipc	s5,0xd
    50202888:	f9ca8a93          	addi	s5,s5,-100 # 5020f820 <mboxes>
    5020288c:	f822                	sd	s0,48(sp)
    5020288e:	f426                	sd	s1,40(sp)
    50202890:	f04a                	sd	s2,32(sp)
    50202892:	ec4e                	sd	s3,24(sp)
    50202894:	e852                	sd	s4,16(sp)
    50202896:	fc06                	sd	ra,56(sp)
    50202898:	89aa                	mv	s3,a0
    5020289a:	84d6                	mv	s1,s5
    5020289c:	4901                	li	s2,0
    5020289e:	4401                	li	s0,0
    502028a0:	4a41                	li	s4,16
    502028a2:	a801                	j	502028b2 <do_mbox_open+0x32>
    502028a4:	2405                	addiw	s0,s0,1
    502028a6:	09848493          	addi	s1,s1,152
    502028aa:	09890913          	addi	s2,s2,152
    502028ae:	03440d63          	beq	s0,s4,502028e8 <do_mbox_open+0x68>
    502028b2:	54fc                	lw	a5,108(s1)
    502028b4:	85ce                	mv	a1,s3
    502028b6:	8526                	mv	a0,s1
    502028b8:	fef056e3          	blez	a5,502028a4 <do_mbox_open+0x24>
    502028bc:	303000ef          	jal	502033be <strcmp>
    502028c0:	f175                	bnez	a0,502028a4 <do_mbox_open+0x24>
    502028c2:	07090913          	addi	s2,s2,112
    502028c6:	012a8533          	add	a0,s5,s2
    502028ca:	cb8ff0ef          	jal	50201d82 <spin_lock_acquire>
    502028ce:	09800793          	li	a5,152
    502028d2:	02f407b3          	mul	a5,s0,a5
    502028d6:	012a8533          	add	a0,s5,s2
    502028da:	97d6                	add	a5,a5,s5
    502028dc:	57f8                	lw	a4,108(a5)
    502028de:	2705                	addiw	a4,a4,1
    502028e0:	d7f8                	sw	a4,108(a5)
    502028e2:	cacff0ef          	jal	50201d8e <spin_lock_release>
    502028e6:	a83d                	j	50202924 <do_mbox_open+0xa4>
    502028e8:	0000d497          	auipc	s1,0xd
    502028ec:	fa848493          	addi	s1,s1,-88 # 5020f890 <mboxes+0x70>
    502028f0:	4401                	li	s0,0
    502028f2:	4941                	li	s2,16
    502028f4:	a031                	j	50202900 <do_mbox_open+0x80>
    502028f6:	2405                	addiw	s0,s0,1
    502028f8:	09848493          	addi	s1,s1,152
    502028fc:	03240363          	beq	s0,s2,50202922 <do_mbox_open+0xa2>
    50202900:	ffc4a783          	lw	a5,-4(s1)
    50202904:	fbed                	bnez	a5,502028f6 <do_mbox_open+0x76>
    50202906:	8526                	mv	a0,s1
    50202908:	c7aff0ef          	jal	50201d82 <spin_lock_acquire>
    5020290c:	ffc4a783          	lw	a5,-4(s1)
    50202910:	8526                	mv	a0,s1
    50202912:	c39d                	beqz	a5,50202938 <do_mbox_open+0xb8>
    50202914:	2405                	addiw	s0,s0,1
    50202916:	c78ff0ef          	jal	50201d8e <spin_lock_release>
    5020291a:	09848493          	addi	s1,s1,152
    5020291e:	ff2411e3          	bne	s0,s2,50202900 <do_mbox_open+0x80>
    50202922:	547d                	li	s0,-1
    50202924:	70e2                	ld	ra,56(sp)
    50202926:	8522                	mv	a0,s0
    50202928:	7442                	ld	s0,48(sp)
    5020292a:	74a2                	ld	s1,40(sp)
    5020292c:	7902                	ld	s2,32(sp)
    5020292e:	69e2                	ld	s3,24(sp)
    50202930:	6a42                	ld	s4,16(sp)
    50202932:	6aa2                	ld	s5,8(sp)
    50202934:	6121                	addi	sp,sp,64
    50202936:	8082                	ret
    50202938:	41548933          	sub	s2,s1,s5
    5020293c:	f9090913          	addi	s2,s2,-112
    50202940:	85ce                	mv	a1,s3
    50202942:	012a8533          	add	a0,s5,s2
    50202946:	2df000ef          	jal	50203424 <strcpy>
    5020294a:	09800613          	li	a2,152
    5020294e:	02c40633          	mul	a2,s0,a2
    50202952:	4585                	li	a1,1
    50202954:	1582                	slli	a1,a1,0x20
    50202956:	07890713          	addi	a4,s2,120
    5020295a:	08890793          	addi	a5,s2,136
    5020295e:	9756                	add	a4,a4,s5
    50202960:	97d6                	add	a5,a5,s5
    50202962:	8526                	mv	a0,s1
    50202964:	06060693          	addi	a3,a2,96
    50202968:	96d6                	add	a3,a3,s5
    5020296a:	0006b023          	sd	zero,0(a3)
    5020296e:	9ab2                	add	s5,s5,a2
    50202970:	e68c                	sd	a1,8(a3)
    50202972:	06eabc23          	sd	a4,120(s5)
    50202976:	08eab023          	sd	a4,128(s5)
    5020297a:	08fab423          	sd	a5,136(s5)
    5020297e:	08fab823          	sd	a5,144(s5)
    50202982:	c0cff0ef          	jal	50201d8e <spin_lock_release>
    50202986:	bf79                	j	50202924 <do_mbox_open+0xa4>

0000000050202988 <do_mbox_close>:
    50202988:	47bd                	li	a5,15
    5020298a:	00a7f363          	bgeu	a5,a0,50202990 <do_mbox_close+0x8>
    5020298e:	8082                	ret
    50202990:	09800793          	li	a5,152
    50202994:	02f507b3          	mul	a5,a0,a5
    50202998:	0000d697          	auipc	a3,0xd
    5020299c:	e8868693          	addi	a3,a3,-376 # 5020f820 <mboxes>
    502029a0:	1101                	addi	sp,sp,-32
    502029a2:	ec06                	sd	ra,24(sp)
    502029a4:	07078513          	addi	a0,a5,112
    502029a8:	9536                	add	a0,a0,a3
    502029aa:	e43e                	sd	a5,8(sp)
    502029ac:	e02a                	sd	a0,0(sp)
    502029ae:	bd4ff0ef          	jal	50201d82 <spin_lock_acquire>
    502029b2:	67a2                	ld	a5,8(sp)
    502029b4:	0000d697          	auipc	a3,0xd
    502029b8:	e6c68693          	addi	a3,a3,-404 # 5020f820 <mboxes>
    502029bc:	6502                	ld	a0,0(sp)
    502029be:	00f68633          	add	a2,a3,a5
    502029c2:	5678                	lw	a4,108(a2)
    502029c4:	00e05b63          	blez	a4,502029da <do_mbox_close+0x52>
    502029c8:	377d                	addiw	a4,a4,-1
    502029ca:	d678                	sw	a4,108(a2)
    502029cc:	e719                	bnez	a4,502029da <do_mbox_close+0x52>
    502029ce:	00060023          	sb	zero,0(a2)
    502029d2:	06062423          	sw	zero,104(a2)
    502029d6:	06063023          	sd	zero,96(a2)
    502029da:	60e2                	ld	ra,24(sp)
    502029dc:	6105                	addi	sp,sp,32
    502029de:	bb0ff06f          	j	50201d8e <spin_lock_release>

00000000502029e2 <do_mbox_send>:
    502029e2:	fff6071b          	addiw	a4,a2,-1
    502029e6:	03f00793          	li	a5,63
    502029ea:	00e7e563          	bltu	a5,a4,502029f4 <do_mbox_send+0x12>
    502029ee:	47bd                	li	a5,15
    502029f0:	00a7f463          	bgeu	a5,a0,502029f8 <do_mbox_send+0x16>
    502029f4:	4501                	li	a0,0
    502029f6:	8082                	ret
    502029f8:	715d                	addi	sp,sp,-80
    502029fa:	09800793          	li	a5,152
    502029fe:	e0a2                	sd	s0,64(sp)
    50202a00:	02f50433          	mul	s0,a0,a5
    50202a04:	f84a                	sd	s2,48(sp)
    50202a06:	f052                	sd	s4,32(sp)
    50202a08:	0000da17          	auipc	s4,0xd
    50202a0c:	e18a0a13          	addi	s4,s4,-488 # 5020f820 <mboxes>
    50202a10:	f44e                	sd	s3,40(sp)
    50202a12:	e85a                	sd	s6,16(sp)
    50202a14:	8b2a                	mv	s6,a0
    50202a16:	fc26                	sd	s1,56(sp)
    50202a18:	ec56                	sd	s5,24(sp)
    50202a1a:	e45e                	sd	s7,8(sp)
    50202a1c:	07040913          	addi	s2,s0,112
    50202a20:	9952                	add	s2,s2,s4
    50202a22:	07840993          	addi	s3,s0,120
    50202a26:	854a                	mv	a0,s2
    50202a28:	e486                	sd	ra,72(sp)
    50202a2a:	8aae                	mv	s5,a1
    50202a2c:	84b2                	mv	s1,a2
    50202a2e:	8ba2                	mv	s7,s0
    50202a30:	99d2                	add	s3,s3,s4
    50202a32:	9452                	add	s0,s0,s4
    50202a34:	b4eff0ef          	jal	50201d82 <spin_lock_acquire>
    50202a38:	04000a13          	li	s4,64
    50202a3c:	a01d                	j	50202a62 <do_mbox_send+0x80>
    50202a3e:	6058                	ld	a4,128(s0)
    50202a40:	e05c                	sd	a5,128(s0)
    50202a42:	03323023          	sd	s3,32(tp) # 20 <_start-0x50200fe0>
    50202a46:	02e23423          	sd	a4,40(tp) # 28 <_start-0x50200fd8>
    50202a4a:	e31c                	sd	a5,0(a4)
    50202a4c:	04022423          	sw	zero,72(tp) # 48 <_start-0x50200fb8>
    50202a50:	b3eff0ef          	jal	50201d8e <spin_lock_release>
    50202a54:	d88ff0ef          	jal	50201fdc <do_scheduler>
    50202a58:	854a                	mv	a0,s2
    50202a5a:	b28ff0ef          	jal	50201d82 <spin_lock_acquire>
    50202a5e:	547c                	lw	a5,108(s0)
    50202a60:	cbe1                	beqz	a5,50202b30 <do_mbox_send+0x14e>
    50202a62:	5434                	lw	a3,104(s0)
    50202a64:	02020793          	addi	a5,tp,32 # 20 <_start-0x50200fe0>
    50202a68:	854a                	mv	a0,s2
    50202a6a:	40da073b          	subw	a4,s4,a3
    50202a6e:	fc9748e3          	blt	a4,s1,50202a3e <do_mbox_send+0x5c>
    50202a72:	09800513          	li	a0,152
    50202a76:	02ab0533          	mul	a0,s6,a0
    50202a7a:	506c                	lw	a1,100(s0)
    50202a7c:	0000d797          	auipc	a5,0xd
    50202a80:	da478793          	addi	a5,a5,-604 # 5020f820 <mboxes>
    50202a84:	4601                	li	a2,0
    50202a86:	953e                	add	a0,a0,a5
    50202a88:	0015879b          	addiw	a5,a1,1
    50202a8c:	41f7d71b          	sraiw	a4,a5,0x1f
    50202a90:	00ca8833          	add	a6,s5,a2
    50202a94:	01a7571b          	srliw	a4,a4,0x1a
    50202a98:	00084883          	lbu	a7,0(a6)
    50202a9c:	9fb9                	addw	a5,a5,a4
    50202a9e:	03f7f793          	andi	a5,a5,63
    50202aa2:	00b50833          	add	a6,a0,a1
    50202aa6:	0605                	addi	a2,a2,1
    50202aa8:	40e785bb          	subw	a1,a5,a4
    50202aac:	03180023          	sb	a7,32(a6)
    50202ab0:	d16c                	sw	a1,100(a0)
    50202ab2:	0006079b          	sext.w	a5,a2
    50202ab6:	fc97c9e3          	blt	a5,s1,50202a88 <do_mbox_send+0xa6>
    50202aba:	9ea5                	addw	a3,a3,s1
    50202abc:	655c                	ld	a5,136(a0)
    50202abe:	088b8593          	addi	a1,s7,136
    50202ac2:	d534                	sw	a3,104(a0)
    50202ac4:	0000d697          	auipc	a3,0xd
    50202ac8:	d5c68693          	addi	a3,a3,-676 # 5020f820 <mboxes>
    50202acc:	95b6                	add	a1,a1,a3
    50202ace:	00002817          	auipc	a6,0x2
    50202ad2:	d5280813          	addi	a6,a6,-686 # 50204820 <pid0_pcb>
    50202ad6:	00002897          	auipc	a7,0x2
    50202ada:	daa88893          	addi	a7,a7,-598 # 50204880 <ready_queue>
    50202ade:	02f58a63          	beq	a1,a5,50202b12 <do_mbox_send+0x130>
    50202ae2:	09800713          	li	a4,152
    50202ae6:	02eb0733          	mul	a4,s6,a4
    50202aea:	4309                	li	t1,2
    50202aec:	00e68533          	add	a0,a3,a4
    50202af0:	6794                	ld	a3,8(a5)
    50202af2:	6390                	ld	a2,0(a5)
    50202af4:	e614                	sd	a3,8(a2)
    50202af6:	06883703          	ld	a4,104(a6)
    50202afa:	e290                	sd	a2,0(a3)
    50202afc:	06f83423          	sd	a5,104(a6)
    50202b00:	0267a423          	sw	t1,40(a5)
    50202b04:	e798                	sd	a4,8(a5)
    50202b06:	0117b023          	sd	a7,0(a5)
    50202b0a:	e31c                	sd	a5,0(a4)
    50202b0c:	655c                	ld	a5,136(a0)
    50202b0e:	feb791e3          	bne	a5,a1,50202af0 <do_mbox_send+0x10e>
    50202b12:	854a                	mv	a0,s2
    50202b14:	a7aff0ef          	jal	50201d8e <spin_lock_release>
    50202b18:	8526                	mv	a0,s1
    50202b1a:	60a6                	ld	ra,72(sp)
    50202b1c:	6406                	ld	s0,64(sp)
    50202b1e:	74e2                	ld	s1,56(sp)
    50202b20:	7942                	ld	s2,48(sp)
    50202b22:	79a2                	ld	s3,40(sp)
    50202b24:	7a02                	ld	s4,32(sp)
    50202b26:	6ae2                	ld	s5,24(sp)
    50202b28:	6b42                	ld	s6,16(sp)
    50202b2a:	6ba2                	ld	s7,8(sp)
    50202b2c:	6161                	addi	sp,sp,80
    50202b2e:	8082                	ret
    50202b30:	854a                	mv	a0,s2
    50202b32:	a5cff0ef          	jal	50201d8e <spin_lock_release>
    50202b36:	4501                	li	a0,0
    50202b38:	b7cd                	j	50202b1a <do_mbox_send+0x138>

0000000050202b3a <do_mbox_recv>:
    50202b3a:	12c05763          	blez	a2,50202c68 <do_mbox_recv+0x12e>
    50202b3e:	47bd                	li	a5,15
    50202b40:	12a7e463          	bltu	a5,a0,50202c68 <do_mbox_recv+0x12e>
    50202b44:	715d                	addi	sp,sp,-80
    50202b46:	09800793          	li	a5,152
    50202b4a:	f052                	sd	s4,32(sp)
    50202b4c:	02f50a33          	mul	s4,a0,a5
    50202b50:	fc26                	sd	s1,56(sp)
    50202b52:	f84a                	sd	s2,48(sp)
    50202b54:	0000d917          	auipc	s2,0xd
    50202b58:	ccc90913          	addi	s2,s2,-820 # 5020f820 <mboxes>
    50202b5c:	ec56                	sd	s5,24(sp)
    50202b5e:	e85a                	sd	s6,16(sp)
    50202b60:	8b2a                	mv	s6,a0
    50202b62:	e0a2                	sd	s0,64(sp)
    50202b64:	f44e                	sd	s3,40(sp)
    50202b66:	e45e                	sd	s7,8(sp)
    50202b68:	070a0493          	addi	s1,s4,112
    50202b6c:	94ca                	add	s1,s1,s2
    50202b6e:	088a0a93          	addi	s5,s4,136
    50202b72:	8526                	mv	a0,s1
    50202b74:	e486                	sd	ra,72(sp)
    50202b76:	89ae                	mv	s3,a1
    50202b78:	8432                	mv	s0,a2
    50202b7a:	8bd2                	mv	s7,s4
    50202b7c:	a06ff0ef          	jal	50201d82 <spin_lock_acquire>
    50202b80:	9aca                	add	s5,s5,s2
    50202b82:	9a4a                	add	s4,s4,s2
    50202b84:	a035                	j	50202bb0 <do_mbox_recv+0x76>
    50202b86:	090a3703          	ld	a4,144(s4)
    50202b8a:	08fa3823          	sd	a5,144(s4)
    50202b8e:	03523023          	sd	s5,32(tp) # 20 <_start-0x50200fe0>
    50202b92:	02e23423          	sd	a4,40(tp) # 28 <_start-0x50200fd8>
    50202b96:	e31c                	sd	a5,0(a4)
    50202b98:	04022423          	sw	zero,72(tp) # 48 <_start-0x50200fb8>
    50202b9c:	9f2ff0ef          	jal	50201d8e <spin_lock_release>
    50202ba0:	c3cff0ef          	jal	50201fdc <do_scheduler>
    50202ba4:	8526                	mv	a0,s1
    50202ba6:	9dcff0ef          	jal	50201d82 <spin_lock_acquire>
    50202baa:	06ca2783          	lw	a5,108(s4)
    50202bae:	cfdd                	beqz	a5,50202c6c <do_mbox_recv+0x132>
    50202bb0:	068a2703          	lw	a4,104(s4)
    50202bb4:	02020793          	addi	a5,tp,32 # 20 <_start-0x50200fe0>
    50202bb8:	8526                	mv	a0,s1
    50202bba:	fc8746e3          	blt	a4,s0,50202b86 <do_mbox_recv+0x4c>
    50202bbe:	09800613          	li	a2,152
    50202bc2:	02cb0633          	mul	a2,s6,a2
    50202bc6:	060a2783          	lw	a5,96(s4)
    50202bca:	4681                	li	a3,0
    50202bcc:	964a                	add	a2,a2,s2
    50202bce:	97b2                	add	a5,a5,a2
    50202bd0:	0207c703          	lbu	a4,32(a5)
    50202bd4:	00d987b3          	add	a5,s3,a3
    50202bd8:	0685                	addi	a3,a3,1
    50202bda:	00e78023          	sb	a4,0(a5)
    50202bde:	523c                	lw	a5,96(a2)
    50202be0:	0006859b          	sext.w	a1,a3
    50202be4:	2785                	addiw	a5,a5,1
    50202be6:	41f7d71b          	sraiw	a4,a5,0x1f
    50202bea:	01a7571b          	srliw	a4,a4,0x1a
    50202bee:	9fb9                	addw	a5,a5,a4
    50202bf0:	03f7f793          	andi	a5,a5,63
    50202bf4:	9f99                	subw	a5,a5,a4
    50202bf6:	d23c                	sw	a5,96(a2)
    50202bf8:	fc85cbe3          	blt	a1,s0,50202bce <do_mbox_recv+0x94>
    50202bfc:	5638                	lw	a4,104(a2)
    50202bfe:	7e3c                	ld	a5,120(a2)
    50202c00:	078b8593          	addi	a1,s7,120
    50202c04:	9f01                	subw	a4,a4,s0
    50202c06:	95ca                	add	a1,a1,s2
    50202c08:	d638                	sw	a4,104(a2)
    50202c0a:	00002517          	auipc	a0,0x2
    50202c0e:	c1650513          	addi	a0,a0,-1002 # 50204820 <pid0_pcb>
    50202c12:	00002817          	auipc	a6,0x2
    50202c16:	c6e80813          	addi	a6,a6,-914 # 50204880 <ready_queue>
    50202c1a:	02f58863          	beq	a1,a5,50202c4a <do_mbox_recv+0x110>
    50202c1e:	09800713          	li	a4,152
    50202c22:	02eb0733          	mul	a4,s6,a4
    50202c26:	4889                	li	a7,2
    50202c28:	993a                	add	s2,s2,a4
    50202c2a:	6794                	ld	a3,8(a5)
    50202c2c:	6390                	ld	a2,0(a5)
    50202c2e:	e614                	sd	a3,8(a2)
    50202c30:	7538                	ld	a4,104(a0)
    50202c32:	e290                	sd	a2,0(a3)
    50202c34:	f53c                	sd	a5,104(a0)
    50202c36:	0317a423          	sw	a7,40(a5)
    50202c3a:	e798                	sd	a4,8(a5)
    50202c3c:	0107b023          	sd	a6,0(a5)
    50202c40:	e31c                	sd	a5,0(a4)
    50202c42:	07893783          	ld	a5,120(s2)
    50202c46:	feb792e3          	bne	a5,a1,50202c2a <do_mbox_recv+0xf0>
    50202c4a:	8526                	mv	a0,s1
    50202c4c:	942ff0ef          	jal	50201d8e <spin_lock_release>
    50202c50:	8522                	mv	a0,s0
    50202c52:	60a6                	ld	ra,72(sp)
    50202c54:	6406                	ld	s0,64(sp)
    50202c56:	74e2                	ld	s1,56(sp)
    50202c58:	7942                	ld	s2,48(sp)
    50202c5a:	79a2                	ld	s3,40(sp)
    50202c5c:	7a02                	ld	s4,32(sp)
    50202c5e:	6ae2                	ld	s5,24(sp)
    50202c60:	6b42                	ld	s6,16(sp)
    50202c62:	6ba2                	ld	s7,8(sp)
    50202c64:	6161                	addi	sp,sp,80
    50202c66:	8082                	ret
    50202c68:	4501                	li	a0,0
    50202c6a:	8082                	ret
    50202c6c:	8526                	mv	a0,s1
    50202c6e:	920ff0ef          	jal	50201d8e <spin_lock_release>
    50202c72:	4501                	li	a0,0
    50202c74:	bff9                	j	50202c52 <do_mbox_recv+0x118>

0000000050202c76 <get_ticks>:
    50202c76:	c0102573          	rdtime	a0
    50202c7a:	00002797          	auipc	a5,0x2
    50202c7e:	c6a7b323          	sd	a0,-922(a5) # 502048e0 <time_elapsed>
    50202c82:	8082                	ret

0000000050202c84 <get_timer>:
    50202c84:	c01027f3          	rdtime	a5
    50202c88:	00002517          	auipc	a0,0x2
    50202c8c:	c5053503          	ld	a0,-944(a0) # 502048d8 <time_base>
    50202c90:	00002717          	auipc	a4,0x2
    50202c94:	c4f73823          	sd	a5,-944(a4) # 502048e0 <time_elapsed>
    50202c98:	02a7d533          	divu	a0,a5,a0
    50202c9c:	8082                	ret

0000000050202c9e <get_time_base>:
    50202c9e:	00002517          	auipc	a0,0x2
    50202ca2:	c3a53503          	ld	a0,-966(a0) # 502048d8 <time_base>
    50202ca6:	8082                	ret

0000000050202ca8 <latency>:
    50202ca8:	c01026f3          	rdtime	a3
    50202cac:	00002617          	auipc	a2,0x2
    50202cb0:	c2c60613          	addi	a2,a2,-980 # 502048d8 <time_base>
    50202cb4:	621c                	ld	a5,0(a2)
    50202cb6:	02f6d6b3          	divu	a3,a3,a5
    50202cba:	c01027f3          	rdtime	a5
    50202cbe:	6218                	ld	a4,0(a2)
    50202cc0:	00002597          	auipc	a1,0x2
    50202cc4:	c2f5b023          	sd	a5,-992(a1) # 502048e0 <time_elapsed>
    50202cc8:	02e7d7b3          	divu	a5,a5,a4
    50202ccc:	8f95                	sub	a5,a5,a3
    50202cce:	fea7e6e3          	bltu	a5,a0,50202cba <latency+0x12>
    50202cd2:	8082                	ret

0000000050202cd4 <check_sleeping>:
    50202cd4:	1101                	addi	sp,sp,-32
    50202cd6:	ec06                	sd	ra,24(sp)
    50202cd8:	e822                	sd	s0,16(sp)
    50202cda:	e426                	sd	s1,8(sp)
    50202cdc:	e04a                	sd	s2,0(sp)
    50202cde:	c0102973          	rdtime	s2
    50202ce2:	00002497          	auipc	s1,0x2
    50202ce6:	bae48493          	addi	s1,s1,-1106 # 50204890 <sleep_queue>
    50202cea:	6080                	ld	s0,0(s1)
    50202cec:	00002797          	auipc	a5,0x2
    50202cf0:	bf27ba23          	sd	s2,-1036(a5) # 502048e0 <time_elapsed>
    50202cf4:	00940b63          	beq	s0,s1,50202d0a <check_sleeping+0x36>
    50202cf8:	7c1c                	ld	a5,56(s0)
    50202cfa:	8522                	mv	a0,s0
    50202cfc:	6000                	ld	s0,0(s0)
    50202cfe:	fef96be3          	bltu	s2,a5,50202cf4 <check_sleeping+0x20>
    50202d02:	bc2ff0ef          	jal	502020c4 <do_unblock>
    50202d06:	fe9419e3          	bne	s0,s1,50202cf8 <check_sleeping+0x24>
    50202d0a:	60e2                	ld	ra,24(sp)
    50202d0c:	6442                	ld	s0,16(sp)
    50202d0e:	64a2                	ld	s1,8(sp)
    50202d10:	6902                	ld	s2,0(sp)
    50202d12:	6105                	addi	sp,sp,32
    50202d14:	8082                	ret

0000000050202d16 <smp_init>:
    50202d16:	8082                	ret

0000000050202d18 <wakeup_other_hart>:
    50202d18:	8082                	ret

0000000050202d1a <lock_kernel>:
    50202d1a:	8082                	ret

0000000050202d1c <unlock_kernel>:
    50202d1c:	8082                	ret

0000000050202d1e <handle_syscall>:
    50202d1e:	654c                	ld	a1,136(a0)
    50202d20:	1141                	addi	sp,sp,-16
    50202d22:	e022                	sd	s0,0(sp)
    50202d24:	e406                	sd	ra,8(sp)
    50202d26:	05f00793          	li	a5,95
    50202d2a:	842a                	mv	s0,a0
    50202d2c:	02b7e963          	bltu	a5,a1,50202d5e <handle_syscall+0x40>
    50202d30:	0000d797          	auipc	a5,0xd
    50202d34:	47078793          	addi	a5,a5,1136 # 502101a0 <syscall>
    50202d38:	00359713          	slli	a4,a1,0x3
    50202d3c:	97ba                	add	a5,a5,a4
    50202d3e:	639c                	ld	a5,0(a5)
    50202d40:	cf99                	beqz	a5,50202d5e <handle_syscall+0x40>
    50202d42:	7130                	ld	a2,96(a0)
    50202d44:	6d2c                	ld	a1,88(a0)
    50202d46:	6928                	ld	a0,80(a0)
    50202d48:	9782                	jalr	a5
    50202d4a:	10843783          	ld	a5,264(s0)
    50202d4e:	60a2                	ld	ra,8(sp)
    50202d50:	e828                	sd	a0,80(s0)
    50202d52:	0791                	addi	a5,a5,4
    50202d54:	10f43423          	sd	a5,264(s0)
    50202d58:	6402                	ld	s0,0(sp)
    50202d5a:	0141                	addi	sp,sp,16
    50202d5c:	8082                	ret
    50202d5e:	00001517          	auipc	a0,0x1
    50202d62:	b5a50513          	addi	a0,a0,-1190 # 502038b8 <strcat+0x42e>
    50202d66:	53e000ef          	jal	502032a4 <printk>
    50202d6a:	10843783          	ld	a5,264(s0)
    50202d6e:	557d                	li	a0,-1
    50202d70:	60a2                	ld	ra,8(sp)
    50202d72:	0791                	addi	a5,a5,4
    50202d74:	e828                	sd	a0,80(s0)
    50202d76:	10f43423          	sd	a5,264(s0)
    50202d7a:	6402                	ld	s0,0(sp)
    50202d7c:	0141                	addi	sp,sp,16
    50202d7e:	8082                	ret

0000000050202d80 <bios_putstr>:
    50202d80:	520007b7          	lui	a5,0x52000
    50202d84:	f0078793          	addi	a5,a5,-256 # 51ffff00 <__BSS_END__+0x1defa60>
    50202d88:	639c                	ld	a5,0(a5)
    50202d8a:	4701                	li	a4,0
    50202d8c:	4681                	li	a3,0
    50202d8e:	4601                	li	a2,0
    50202d90:	4581                	li	a1,0
    50202d92:	8782                	jr	a5

0000000050202d94 <bios_logging>:
    50202d94:	520007b7          	lui	a5,0x52000
    50202d98:	f2878793          	addi	a5,a5,-216 # 51ffff28 <__BSS_END__+0x1defa88>
    50202d9c:	639c                	ld	a5,0(a5)
    50202d9e:	4701                	li	a4,0
    50202da0:	4681                	li	a3,0
    50202da2:	4601                	li	a2,0
    50202da4:	4581                	li	a1,0
    50202da6:	8782                	jr	a5

0000000050202da8 <_output_wrapper>:
    50202da8:	1141                	addi	sp,sp,-16
    50202daa:	e406                	sd	ra,8(sp)
    50202dac:	b03fe0ef          	jal	502018ae <screen_write>
    50202db0:	60a2                	ld	ra,8(sp)
    50202db2:	0141                	addi	sp,sp,16
    50202db4:	b29fe06f          	j	502018dc <screen_reflush>

0000000050202db8 <mini_itoa.part.0>:
    50202db8:	12055c63          	bgez	a0,50202ef0 <mini_itoa.part.0+0x138>
    50202dbc:	03f69313          	slli	t1,a3,0x3f
    50202dc0:	03f35893          	srli	a7,t1,0x3f
    50202dc4:	12089663          	bnez	a7,50202ef0 <mini_itoa.part.0+0x138>
    50202dc8:	40a00533          	neg	a0,a0
    50202dcc:	4f05                	li	t5,1
    50202dce:	0016f893          	andi	a7,a3,1
    50202dd2:	06100e93          	li	t4,97
    50202dd6:	00088463          	beqz	a7,50202dde <mini_itoa.part.0+0x26>
    50202dda:	04100e93          	li	t4,65
    50202dde:	1582                	slli	a1,a1,0x20
    50202de0:	3ed9                	addiw	t4,t4,-10
    50202de2:	00170893          	addi	a7,a4,1
    50202de6:	9181                	srli	a1,a1,0x20
    50202de8:	4fa5                	li	t6,9
    50202dea:	4e25                	li	t3,9
    50202dec:	ce81                	beqz	a3,50202e04 <mini_itoa.part.0+0x4c>
    50202dee:	a85d                	j	50202ea4 <mini_itoa.part.0+0xec>
    50202df0:	01d68fbb          	addw	t6,a3,t4
    50202df4:	ea65                	bnez	a2,50202ee4 <mini_itoa.part.0+0x12c>
    50202df6:	4341                	li	t1,16
    50202df8:	02654533          	div	a0,a0,t1
    50202dfc:	fff88fa3          	sb	t6,-1(a7)
    50202e00:	cd11                	beqz	a0,50202e1c <mini_itoa.part.0+0x64>
    50202e02:	0885                	addi	a7,a7,1
    50202e04:	02b566b3          	rem	a3,a0,a1
    50202e08:	832e                	mv	t1,a1
    50202e0a:	fede43e3          	blt	t3,a3,50202df0 <mini_itoa.part.0+0x38>
    50202e0e:	0306869b          	addiw	a3,a3,48
    50202e12:	fed88fa3          	sb	a3,-1(a7)
    50202e16:	02654533          	div	a0,a0,t1
    50202e1a:	f565                	bnez	a0,50202e02 <mini_itoa.part.0+0x4a>
    50202e1c:	40e886bb          	subw	a3,a7,a4
    50202e20:	02f6f263          	bgeu	a3,a5,50202e44 <mini_itoa.part.0+0x8c>
    50202e24:	fff7861b          	addiw	a2,a5,-1
    50202e28:	9e15                	subw	a2,a2,a3
    50202e2a:	1602                	slli	a2,a2,0x20
    50202e2c:	9201                	srli	a2,a2,0x20
    50202e2e:	00160693          	addi	a3,a2,1
    50202e32:	87c6                	mv	a5,a7
    50202e34:	96c6                	add	a3,a3,a7
    50202e36:	0785                	addi	a5,a5,1
    50202e38:	ff078fa3          	sb	a6,-1(a5)
    50202e3c:	fed79de3          	bne	a5,a3,50202e36 <mini_itoa.part.0+0x7e>
    50202e40:	0885                	addi	a7,a7,1
    50202e42:	98b2                	add	a7,a7,a2
    50202e44:	000f0763          	beqz	t5,50202e52 <mini_itoa.part.0+0x9a>
    50202e48:	02d00793          	li	a5,45
    50202e4c:	00f88023          	sb	a5,0(a7)
    50202e50:	0885                	addi	a7,a7,1
    50202e52:	40e8853b          	subw	a0,a7,a4
    50202e56:	00088023          	sb	zero,0(a7)
    50202e5a:	0015589b          	srliw	a7,a0,0x1
    50202e5e:	08088863          	beqz	a7,50202eee <mini_itoa.part.0+0x136>
    50202e62:	fff7081b          	addiw	a6,a4,-1
    50202e66:	98ba                	add	a7,a7,a4
    50202e68:	00a8083b          	addw	a6,a6,a0
    50202e6c:	86ba                	mv	a3,a4
    50202e6e:	40d807bb          	subw	a5,a6,a3
    50202e72:	1782                	slli	a5,a5,0x20
    50202e74:	9381                	srli	a5,a5,0x20
    50202e76:	97ba                	add	a5,a5,a4
    50202e78:	0007c583          	lbu	a1,0(a5)
    50202e7c:	0006c603          	lbu	a2,0(a3)
    50202e80:	0685                	addi	a3,a3,1
    50202e82:	feb68fa3          	sb	a1,-1(a3)
    50202e86:	00c78023          	sb	a2,0(a5)
    50202e8a:	fed892e3          	bne	a7,a3,50202e6e <mini_itoa.part.0+0xb6>
    50202e8e:	8082                	ret
    50202e90:	4e41                	li	t3,16
    50202e92:	0306869b          	addiw	a3,a3,48
    50202e96:	fed88fa3          	sb	a3,-1(a7)
    50202e9a:	f9c361e3          	bltu	t1,t3,50202e1c <mini_itoa.part.0+0x64>
    50202e9e:	03c35533          	divu	a0,t1,t3
    50202ea2:	0885                	addi	a7,a7,1
    50202ea4:	832a                	mv	t1,a0
    50202ea6:	8e2e                	mv	t3,a1
    50202ea8:	02b576b3          	remu	a3,a0,a1
    50202eac:	fedff3e3          	bgeu	t6,a3,50202e92 <mini_itoa.part.0+0xda>
    50202eb0:	c605                	beqz	a2,50202ed8 <mini_itoa.part.0+0x120>
    50202eb2:	01d686bb          	addw	a3,a3,t4
    50202eb6:	fed88fa3          	sb	a3,-1(a7)
    50202eba:	00455313          	srli	t1,a0,0x4
    50202ebe:	00f37693          	andi	a3,t1,15
    50202ec2:	f4030de3          	beqz	t1,50202e1c <mini_itoa.part.0+0x64>
    50202ec6:	0885                	addi	a7,a7,1
    50202ec8:	fcdff4e3          	bgeu	t6,a3,50202e90 <mini_itoa.part.0+0xd8>
    50202ecc:	01d686bb          	addw	a3,a3,t4
    50202ed0:	fed88fa3          	sb	a3,-1(a7)
    50202ed4:	851a                	mv	a0,t1
    50202ed6:	b7d5                	j	50202eba <mini_itoa.part.0+0x102>
    50202ed8:	0576869b          	addiw	a3,a3,87
    50202edc:	fed88fa3          	sb	a3,-1(a7)
    50202ee0:	4e41                	li	t3,16
    50202ee2:	bf65                	j	50202e9a <mini_itoa.part.0+0xe2>
    50202ee4:	0376869b          	addiw	a3,a3,55
    50202ee8:	fed88fa3          	sb	a3,-1(a7)
    50202eec:	b72d                	j	50202e16 <mini_itoa.part.0+0x5e>
    50202eee:	8082                	ret
    50202ef0:	4f01                	li	t5,0
    50202ef2:	bdf1                	j	50202dce <mini_itoa.part.0+0x16>

0000000050202ef4 <_vprint>:
    50202ef4:	7125                	addi	sp,sp,-416
    50202ef6:	fece                	sd	s3,376(sp)
    50202ef8:	ef06                	sd	ra,408(sp)
    50202efa:	fad2                	sd	s4,368(sp)
    50202efc:	f6d6                	sd	s5,360(sp)
    50202efe:	00054783          	lbu	a5,0(a0)
    50202f02:	89b2                	mv	s3,a2
    50202f04:	38078363          	beqz	a5,5020328a <_vprint+0x396>
    50202f08:	03010a13          	addi	s4,sp,48
    50202f0c:	eb22                	sd	s0,400(sp)
    50202f0e:	e726                	sd	s1,392(sp)
    50202f10:	f2da                	sd	s6,352(sp)
    50202f12:	eede                	sd	s7,344(sp)
    50202f14:	eae2                	sd	s8,336(sp)
    50202f16:	e6e6                	sd	s9,328(sp)
    50202f18:	e2ea                	sd	s10,320(sp)
    50202f1a:	fe6e                	sd	s11,312(sp)
    50202f1c:	e34a                	sd	s2,384(sp)
    50202f1e:	842a                	mv	s0,a0
    50202f20:	84d2                	mv	s1,s4
    50202f22:	00150613          	addi	a2,a0,1
    50202f26:	0ff00b13          	li	s6,255
    50202f2a:	02500b93          	li	s7,37
    50202f2e:	4ca5                	li	s9,9
    50202f30:	02000d13          	li	s10,32
    50202f34:	00001c17          	auipc	s8,0x1
    50202f38:	adcc0c13          	addi	s8,s8,-1316 # 50203a10 <CSWTCH.47+0x18>
    50202f3c:	06c00d93          	li	s11,108
    50202f40:	a005                	j	50202f60 <_vprint+0x6c>
    50202f42:	00148713          	addi	a4,s1,1
    50202f46:	00f48023          	sb	a5,0(s1)
    50202f4a:	000480a3          	sb	zero,1(s1)
    50202f4e:	8432                	mv	s0,a2
    50202f50:	41470933          	sub	s2,a4,s4
    50202f54:	84ba                	mv	s1,a4
    50202f56:	00044783          	lbu	a5,0(s0)
    50202f5a:	00140613          	addi	a2,s0,1
    50202f5e:	c3cd                	beqz	a5,50203000 <_vprint+0x10c>
    50202f60:	41448933          	sub	s2,s1,s4
    50202f64:	0019071b          	addiw	a4,s2,1
    50202f68:	00090a9b          	sext.w	s5,s2
    50202f6c:	08eb6c63          	bltu	s6,a4,50203004 <_vprint+0x110>
    50202f70:	fd7799e3          	bne	a5,s7,50202f42 <_vprint+0x4e>
    50202f74:	00144683          	lbu	a3,1(s0)
    50202f78:	fd06879b          	addiw	a5,a3,-48
    50202f7c:	0ff7f793          	zext.b	a5,a5
    50202f80:	02fcf563          	bgeu	s9,a5,50202faa <_vprint+0xb6>
    50202f84:	0409                	addi	s0,s0,2
    50202f86:	02000813          	li	a6,32
    50202f8a:	4781                	li	a5,0
    50202f8c:	4601                	li	a2,0
    50202f8e:	07b68463          	beq	a3,s11,50202ff6 <_vprint+0x102>
    50202f92:	caad                	beqz	a3,50203004 <_vprint+0x110>
    50202f94:	fa86871b          	addiw	a4,a3,-88
    50202f98:	0ff77713          	zext.b	a4,a4
    50202f9c:	08ed6a63          	bltu	s10,a4,50203030 <_vprint+0x13c>
    50202fa0:	070a                	slli	a4,a4,0x2
    50202fa2:	9762                	add	a4,a4,s8
    50202fa4:	4318                	lw	a4,0(a4)
    50202fa6:	9762                	add	a4,a4,s8
    50202fa8:	8702                	jr	a4
    50202faa:	03000793          	li	a5,48
    50202fae:	02000813          	li	a6,32
    50202fb2:	00f69363          	bne	a3,a5,50202fb8 <_vprint+0xc4>
    50202fb6:	8836                	mv	a6,a3
    50202fb8:	00064683          	lbu	a3,0(a2)
    50202fbc:	c6a1                	beqz	a3,50203004 <_vprint+0x110>
    50202fbe:	00160413          	addi	s0,a2,1
    50202fc2:	4781                	li	a5,0
    50202fc4:	4625                	li	a2,9
    50202fc6:	a829                	j	50202fe0 <_vprint+0xec>
    50202fc8:	0027971b          	slliw	a4,a5,0x2
    50202fcc:	9f3d                	addw	a4,a4,a5
    50202fce:	0405                	addi	s0,s0,1
    50202fd0:	0017171b          	slliw	a4,a4,0x1
    50202fd4:	9f35                	addw	a4,a4,a3
    50202fd6:	fff44683          	lbu	a3,-1(s0)
    50202fda:	fd07079b          	addiw	a5,a4,-48
    50202fde:	c29d                	beqz	a3,50203004 <_vprint+0x110>
    50202fe0:	fd06871b          	addiw	a4,a3,-48
    50202fe4:	0ff77713          	zext.b	a4,a4
    50202fe8:	fee670e3          	bgeu	a2,a4,50202fc8 <_vprint+0xd4>
    50202fec:	06c00713          	li	a4,108
    50202ff0:	4601                	li	a2,0
    50202ff2:	fae691e3          	bne	a3,a4,50202f94 <_vprint+0xa0>
    50202ff6:	4605                	li	a2,1
    50202ff8:	00044683          	lbu	a3,0(s0)
    50202ffc:	9432                	add	s0,s0,a2
    50202ffe:	bf51                	j	50202f92 <_vprint+0x9e>
    50203000:	00090a9b          	sext.w	s5,s2
    50203004:	645a                	ld	s0,400(sp)
    50203006:	64ba                	ld	s1,392(sp)
    50203008:	691a                	ld	s2,384(sp)
    5020300a:	7b16                	ld	s6,352(sp)
    5020300c:	6bf6                	ld	s7,344(sp)
    5020300e:	6c56                	ld	s8,336(sp)
    50203010:	6cb6                	ld	s9,328(sp)
    50203012:	6d16                	ld	s10,320(sp)
    50203014:	7df2                	ld	s11,312(sp)
    50203016:	002a87b3          	add	a5,s5,sp
    5020301a:	8552                	mv	a0,s4
    5020301c:	02078823          	sb	zero,48(a5)
    50203020:	9982                	jalr	s3
    50203022:	60fa                	ld	ra,408(sp)
    50203024:	79f6                	ld	s3,376(sp)
    50203026:	7a56                	ld	s4,368(sp)
    50203028:	8556                	mv	a0,s5
    5020302a:	7ab6                	ld	s5,360(sp)
    5020302c:	611d                	addi	sp,sp,416
    5020302e:	8082                	ret
    50203030:	00148793          	addi	a5,s1,1
    50203034:	00d48023          	sb	a3,0(s1)
    50203038:	000480a3          	sb	zero,1(s1)
    5020303c:	41478933          	sub	s2,a5,s4
    50203040:	84be                	mv	s1,a5
    50203042:	bf11                	j	50202f56 <_vprint+0x62>
    50203044:	00858893          	addi	a7,a1,8
    50203048:	1e061963          	bnez	a2,5020323a <_vprint+0x346>
    5020304c:	0005e503          	lwu	a0,0(a1)
    50203050:	fa868693          	addi	a3,a3,-88
    50203054:	0838                	addi	a4,sp,24
    50203056:	0016b613          	seqz	a2,a3
    5020305a:	45c1                	li	a1,16
    5020305c:	4685                	li	a3,1
    5020305e:	e446                	sd	a7,8(sp)
    50203060:	e03a                	sd	a4,0(sp)
    50203062:	d57ff0ef          	jal	50202db8 <mini_itoa.part.0>
    50203066:	02051613          	slli	a2,a0,0x20
    5020306a:	10000793          	li	a5,256
    5020306e:	9201                	srli	a2,a2,0x20
    50203070:	412787b3          	sub	a5,a5,s2
    50203074:	6702                	ld	a4,0(sp)
    50203076:	68a2                	ld	a7,8(sp)
    50203078:	1af64e63          	blt	a2,a5,50203234 <_vprint+0x340>
    5020307c:	0ff00513          	li	a0,255
    50203080:	4155053b          	subw	a0,a0,s5
    50203084:	02051613          	slli	a2,a0,0x20
    50203088:	9201                	srli	a2,a2,0x20
    5020308a:	963a                	add	a2,a2,a4
    5020308c:	87a6                	mv	a5,s1
    5020308e:	00074683          	lbu	a3,0(a4)
    50203092:	0705                	addi	a4,a4,1
    50203094:	0785                	addi	a5,a5,1
    50203096:	fed78fa3          	sb	a3,-1(a5)
    5020309a:	fee61ae3          	bne	a2,a4,5020308e <_vprint+0x19a>
    5020309e:	357d                	addiw	a0,a0,-1
    502030a0:	1502                	slli	a0,a0,0x20
    502030a2:	9101                	srli	a0,a0,0x20
    502030a4:	0485                	addi	s1,s1,1
    502030a6:	94aa                	add	s1,s1,a0
    502030a8:	41448933          	sub	s2,s1,s4
    502030ac:	00048023          	sb	zero,0(s1)
    502030b0:	85c6                	mv	a1,a7
    502030b2:	b555                	j	50202f56 <_vprint+0x62>
    502030b4:	00858893          	addi	a7,a1,8
    502030b8:	18061663          	bnez	a2,50203244 <_vprint+0x350>
    502030bc:	0005e503          	lwu	a0,0(a1)
    502030c0:	0838                	addi	a4,sp,24
    502030c2:	4601                	li	a2,0
    502030c4:	4685                	li	a3,1
    502030c6:	45a9                	li	a1,10
    502030c8:	e446                	sd	a7,8(sp)
    502030ca:	e03a                	sd	a4,0(sp)
    502030cc:	cedff0ef          	jal	50202db8 <mini_itoa.part.0>
    502030d0:	02051613          	slli	a2,a0,0x20
    502030d4:	10000793          	li	a5,256
    502030d8:	9201                	srli	a2,a2,0x20
    502030da:	412787b3          	sub	a5,a5,s2
    502030de:	6702                	ld	a4,0(sp)
    502030e0:	68a2                	ld	a7,8(sp)
    502030e2:	14f64e63          	blt	a2,a5,5020323e <_vprint+0x34a>
    502030e6:	0ff00513          	li	a0,255
    502030ea:	4155053b          	subw	a0,a0,s5
    502030ee:	02051613          	slli	a2,a0,0x20
    502030f2:	9201                	srli	a2,a2,0x20
    502030f4:	963a                	add	a2,a2,a4
    502030f6:	87a6                	mv	a5,s1
    502030f8:	00074683          	lbu	a3,0(a4)
    502030fc:	0705                	addi	a4,a4,1
    502030fe:	0785                	addi	a5,a5,1
    50203100:	fed78fa3          	sb	a3,-1(a5)
    50203104:	fec71ae3          	bne	a4,a2,502030f8 <_vprint+0x204>
    50203108:	bf59                	j	5020309e <_vprint+0x1aa>
    5020310a:	6198                	ld	a4,0(a1)
    5020310c:	00858813          	addi	a6,a1,8
    50203110:	00074683          	lbu	a3,0(a4)
    50203114:	14068a63          	beqz	a3,50203268 <_vprint+0x374>
    50203118:	4681                	li	a3,0
    5020311a:	2685                	addiw	a3,a3,1
    5020311c:	02069613          	slli	a2,a3,0x20
    50203120:	9201                	srli	a2,a2,0x20
    50203122:	00c705b3          	add	a1,a4,a2
    50203126:	0005c583          	lbu	a1,0(a1)
    5020312a:	f9e5                	bnez	a1,5020311a <_vprint+0x226>
    5020312c:	10000593          	li	a1,256
    50203130:	412585b3          	sub	a1,a1,s2
    50203134:	10b64e63          	blt	a2,a1,50203250 <_vprint+0x35c>
    50203138:	0ff00893          	li	a7,255
    5020313c:	415888bb          	subw	a7,a7,s5
    50203140:	02089513          	slli	a0,a7,0x20
    50203144:	9101                	srli	a0,a0,0x20
    50203146:	8626                	mv	a2,s1
    50203148:	9526                	add	a0,a0,s1
    5020314a:	00074583          	lbu	a1,0(a4)
    5020314e:	0605                	addi	a2,a2,1
    50203150:	0705                	addi	a4,a4,1
    50203152:	feb60fa3          	sb	a1,-1(a2)
    50203156:	fea61ae3          	bne	a2,a0,5020314a <_vprint+0x256>
    5020315a:	38fd                	addiw	a7,a7,-1
    5020315c:	1882                	slli	a7,a7,0x20
    5020315e:	0208d893          	srli	a7,a7,0x20
    50203162:	0485                	addi	s1,s1,1
    50203164:	94c6                	add	s1,s1,a7
    50203166:	00048023          	sb	zero,0(s1)
    5020316a:	85c2                	mv	a1,a6
    5020316c:	41448933          	sub	s2,s1,s4
    50203170:	def6f3e3          	bgeu	a3,a5,50202f56 <_vprint+0x62>
    50203174:	9f95                	subw	a5,a5,a3
    50203176:	02079693          	slli	a3,a5,0x20
    5020317a:	10000713          	li	a4,256
    5020317e:	9281                	srli	a3,a3,0x20
    50203180:	41270733          	sub	a4,a4,s2
    50203184:	00e6cf63          	blt	a3,a4,502031a2 <_vprint+0x2ae>
    50203188:	00090a9b          	sext.w	s5,s2
    5020318c:	0ff00793          	li	a5,255
    50203190:	02fa8963          	beq	s5,a5,502031c2 <_vprint+0x2ce>
    50203194:	0ff00793          	li	a5,255
    50203198:	415787bb          	subw	a5,a5,s5
    5020319c:	02079693          	slli	a3,a5,0x20
    502031a0:	9281                	srli	a3,a3,0x20
    502031a2:	96a6                	add	a3,a3,s1
    502031a4:	8726                	mv	a4,s1
    502031a6:	02000613          	li	a2,32
    502031aa:	00c70023          	sb	a2,0(a4)
    502031ae:	0705                	addi	a4,a4,1
    502031b0:	fee69de3          	bne	a3,a4,502031aa <_vprint+0x2b6>
    502031b4:	37fd                	addiw	a5,a5,-1
    502031b6:	1782                	slli	a5,a5,0x20
    502031b8:	9381                	srli	a5,a5,0x20
    502031ba:	0485                	addi	s1,s1,1
    502031bc:	94be                	add	s1,s1,a5
    502031be:	41448933          	sub	s2,s1,s4
    502031c2:	00048023          	sb	zero,0(s1)
    502031c6:	85c2                	mv	a1,a6
    502031c8:	b379                	j	50202f56 <_vprint+0x62>
    502031ca:	00858893          	addi	a7,a1,8
    502031ce:	ee3d                	bnez	a2,5020324c <_vprint+0x358>
    502031d0:	4188                	lw	a0,0(a1)
    502031d2:	0838                	addi	a4,sp,24
    502031d4:	4601                	li	a2,0
    502031d6:	4681                	li	a3,0
    502031d8:	45a9                	li	a1,10
    502031da:	e446                	sd	a7,8(sp)
    502031dc:	e03a                	sd	a4,0(sp)
    502031de:	bdbff0ef          	jal	50202db8 <mini_itoa.part.0>
    502031e2:	02051613          	slli	a2,a0,0x20
    502031e6:	10000793          	li	a5,256
    502031ea:	9201                	srli	a2,a2,0x20
    502031ec:	412787b3          	sub	a5,a5,s2
    502031f0:	6702                	ld	a4,0(sp)
    502031f2:	68a2                	ld	a7,8(sp)
    502031f4:	04f64a63          	blt	a2,a5,50203248 <_vprint+0x354>
    502031f8:	0ff00513          	li	a0,255
    502031fc:	4155053b          	subw	a0,a0,s5
    50203200:	02051613          	slli	a2,a0,0x20
    50203204:	9201                	srli	a2,a2,0x20
    50203206:	963a                	add	a2,a2,a4
    50203208:	87a6                	mv	a5,s1
    5020320a:	00074683          	lbu	a3,0(a4)
    5020320e:	0705                	addi	a4,a4,1
    50203210:	0785                	addi	a5,a5,1
    50203212:	fed78fa3          	sb	a3,-1(a5)
    50203216:	fec71ae3          	bne	a4,a2,5020320a <_vprint+0x316>
    5020321a:	b551                	j	5020309e <_vprint+0x1aa>
    5020321c:	4198                	lw	a4,0(a1)
    5020321e:	00148793          	addi	a5,s1,1
    50203222:	000480a3          	sb	zero,1(s1)
    50203226:	00e48023          	sb	a4,0(s1)
    5020322a:	05a1                	addi	a1,a1,8
    5020322c:	41478933          	sub	s2,a5,s4
    50203230:	84be                	mv	s1,a5
    50203232:	b315                	j	50202f56 <_vprint+0x62>
    50203234:	e4051be3          	bnez	a0,5020308a <_vprint+0x196>
    50203238:	bd95                	j	502030ac <_vprint+0x1b8>
    5020323a:	6188                	ld	a0,0(a1)
    5020323c:	bd11                	j	50203050 <_vprint+0x15c>
    5020323e:	ea051be3          	bnez	a0,502030f4 <_vprint+0x200>
    50203242:	b5ad                	j	502030ac <_vprint+0x1b8>
    50203244:	6188                	ld	a0,0(a1)
    50203246:	bdad                	j	502030c0 <_vprint+0x1cc>
    50203248:	fd5d                	bnez	a0,50203206 <_vprint+0x312>
    5020324a:	b58d                	j	502030ac <_vprint+0x1b8>
    5020324c:	6188                	ld	a0,0(a1)
    5020324e:	b751                	j	502031d2 <_vprint+0x2de>
    50203250:	88b6                	mv	a7,a3
    50203252:	ee0697e3          	bnez	a3,50203140 <_vprint+0x24c>
    50203256:	00048023          	sb	zero,0(s1)
    5020325a:	d7b5                	beqz	a5,502031c6 <_vprint+0x2d2>
    5020325c:	02079693          	slli	a3,a5,0x20
    50203260:	9281                	srli	a3,a3,0x20
    50203262:	f4b6c0e3          	blt	a3,a1,502031a2 <_vprint+0x2ae>
    50203266:	b73d                	j	50203194 <_vprint+0x2a0>
    50203268:	0ff00893          	li	a7,255
    5020326c:	0328c363          	blt	a7,s2,50203292 <_vprint+0x39e>
    50203270:	00048023          	sb	zero,0(s1)
    50203274:	dba9                	beqz	a5,502031c6 <_vprint+0x2d2>
    50203276:	10000713          	li	a4,256
    5020327a:	02079693          	slli	a3,a5,0x20
    5020327e:	41270733          	sub	a4,a4,s2
    50203282:	9281                	srli	a3,a3,0x20
    50203284:	f0e6cfe3          	blt	a3,a4,502031a2 <_vprint+0x2ae>
    50203288:	b731                	j	50203194 <_vprint+0x2a0>
    5020328a:	4a81                	li	s5,0
    5020328c:	03010a13          	addi	s4,sp,48
    50203290:	b359                	j	50203016 <_vprint+0x122>
    50203292:	415888bb          	subw	a7,a7,s5
    50203296:	4681                	li	a3,0
    50203298:	b565                	j	50203140 <_vprint+0x24c>

000000005020329a <vprintk>:
    5020329a:	00000617          	auipc	a2,0x0
    5020329e:	b0e60613          	addi	a2,a2,-1266 # 50202da8 <_output_wrapper>
    502032a2:	b989                	j	50202ef4 <_vprint>

00000000502032a4 <printk>:
    502032a4:	711d                	addi	sp,sp,-96
    502032a6:	02810313          	addi	t1,sp,40
    502032aa:	f42e                	sd	a1,40(sp)
    502032ac:	f832                	sd	a2,48(sp)
    502032ae:	859a                	mv	a1,t1
    502032b0:	00000617          	auipc	a2,0x0
    502032b4:	af860613          	addi	a2,a2,-1288 # 50202da8 <_output_wrapper>
    502032b8:	ec06                	sd	ra,24(sp)
    502032ba:	fc36                	sd	a3,56(sp)
    502032bc:	e0ba                	sd	a4,64(sp)
    502032be:	e4be                	sd	a5,72(sp)
    502032c0:	e8c2                	sd	a6,80(sp)
    502032c2:	ecc6                	sd	a7,88(sp)
    502032c4:	e41a                	sd	t1,8(sp)
    502032c6:	c2fff0ef          	jal	50202ef4 <_vprint>
    502032ca:	60e2                	ld	ra,24(sp)
    502032cc:	6125                	addi	sp,sp,96
    502032ce:	8082                	ret

00000000502032d0 <printv>:
    502032d0:	711d                	addi	sp,sp,-96
    502032d2:	02810313          	addi	t1,sp,40
    502032d6:	f42e                	sd	a1,40(sp)
    502032d8:	f832                	sd	a2,48(sp)
    502032da:	859a                	mv	a1,t1
    502032dc:	00000617          	auipc	a2,0x0
    502032e0:	aa460613          	addi	a2,a2,-1372 # 50202d80 <bios_putstr>
    502032e4:	ec06                	sd	ra,24(sp)
    502032e6:	fc36                	sd	a3,56(sp)
    502032e8:	e0ba                	sd	a4,64(sp)
    502032ea:	e4be                	sd	a5,72(sp)
    502032ec:	e8c2                	sd	a6,80(sp)
    502032ee:	ecc6                	sd	a7,88(sp)
    502032f0:	e41a                	sd	t1,8(sp)
    502032f2:	c03ff0ef          	jal	50202ef4 <_vprint>
    502032f6:	60e2                	ld	ra,24(sp)
    502032f8:	6125                	addi	sp,sp,96
    502032fa:	8082                	ret

00000000502032fc <printl>:
    502032fc:	711d                	addi	sp,sp,-96
    502032fe:	02810313          	addi	t1,sp,40
    50203302:	f42e                	sd	a1,40(sp)
    50203304:	f832                	sd	a2,48(sp)
    50203306:	859a                	mv	a1,t1
    50203308:	00000617          	auipc	a2,0x0
    5020330c:	a8c60613          	addi	a2,a2,-1396 # 50202d94 <bios_logging>
    50203310:	ec06                	sd	ra,24(sp)
    50203312:	fc36                	sd	a3,56(sp)
    50203314:	e0ba                	sd	a4,64(sp)
    50203316:	e4be                	sd	a5,72(sp)
    50203318:	e8c2                	sd	a6,80(sp)
    5020331a:	ecc6                	sd	a7,88(sp)
    5020331c:	e41a                	sd	t1,8(sp)
    5020331e:	bd7ff0ef          	jal	50202ef4 <_vprint>
    50203322:	60e2                	ld	ra,24(sp)
    50203324:	6125                	addi	sp,sp,96
    50203326:	8082                	ret

0000000050203328 <do_getchar>:
    50203328:	1101                	addi	sp,sp,-32
    5020332a:	e822                	sd	s0,16(sp)
    5020332c:	52000437          	lui	s0,0x52000
    50203330:	e426                	sd	s1,8(sp)
    50203332:	ec06                	sd	ra,24(sp)
    50203334:	f1040413          	addi	s0,s0,-240 # 51ffff10 <__BSS_END__+0x1defa70>
    50203338:	54fd                	li	s1,-1
    5020333a:	a019                	j	50203340 <do_getchar+0x18>
    5020333c:	ca1fe0ef          	jal	50201fdc <do_scheduler>
    50203340:	601c                	ld	a5,0(s0)
    50203342:	4701                	li	a4,0
    50203344:	4681                	li	a3,0
    50203346:	4601                	li	a2,0
    50203348:	4581                	li	a1,0
    5020334a:	4501                	li	a0,0
    5020334c:	9782                	jalr	a5
    5020334e:	2501                	sext.w	a0,a0
    50203350:	fe9506e3          	beq	a0,s1,5020333c <do_getchar+0x14>
    50203354:	60e2                	ld	ra,24(sp)
    50203356:	6442                	ld	s0,16(sp)
    50203358:	64a2                	ld	s1,8(sp)
    5020335a:	6105                	addi	sp,sp,32
    5020335c:	8082                	ret

000000005020335e <memcpy>:
    5020335e:	ce01                	beqz	a2,50203376 <memcpy+0x18>
    50203360:	1602                	slli	a2,a2,0x20
    50203362:	9201                	srli	a2,a2,0x20
    50203364:	962a                	add	a2,a2,a0
    50203366:	0005c783          	lbu	a5,0(a1)
    5020336a:	0505                	addi	a0,a0,1
    5020336c:	0585                	addi	a1,a1,1
    5020336e:	fef50fa3          	sb	a5,-1(a0)
    50203372:	fec51ae3          	bne	a0,a2,50203366 <memcpy+0x8>
    50203376:	8082                	ret

0000000050203378 <memset>:
    50203378:	ca09                	beqz	a2,5020338a <memset+0x12>
    5020337a:	1602                	slli	a2,a2,0x20
    5020337c:	9201                	srli	a2,a2,0x20
    5020337e:	962a                	add	a2,a2,a0
    50203380:	0505                	addi	a0,a0,1
    50203382:	feb50fa3          	sb	a1,-1(a0)
    50203386:	fec51de3          	bne	a0,a2,50203380 <memset+0x8>
    5020338a:	8082                	ret

000000005020338c <bzero>:
    5020338c:	c989                	beqz	a1,5020339e <bzero+0x12>
    5020338e:	1582                	slli	a1,a1,0x20
    50203390:	9181                	srli	a1,a1,0x20
    50203392:	95aa                	add	a1,a1,a0
    50203394:	0505                	addi	a0,a0,1
    50203396:	fe050fa3          	sb	zero,-1(a0)
    5020339a:	feb51de3          	bne	a0,a1,50203394 <bzero+0x8>
    5020339e:	8082                	ret

00000000502033a0 <strlen>:
    502033a0:	00054783          	lbu	a5,0(a0)
    502033a4:	cb99                	beqz	a5,502033ba <strlen+0x1a>
    502033a6:	00150793          	addi	a5,a0,1
    502033aa:	86be                	mv	a3,a5
    502033ac:	0007c703          	lbu	a4,0(a5)
    502033b0:	0785                	addi	a5,a5,1
    502033b2:	ff65                	bnez	a4,502033aa <strlen+0xa>
    502033b4:	40a6853b          	subw	a0,a3,a0
    502033b8:	8082                	ret
    502033ba:	4501                	li	a0,0
    502033bc:	8082                	ret

00000000502033be <strcmp>:
    502033be:	00054703          	lbu	a4,0(a0)
    502033c2:	eb01                	bnez	a4,502033d2 <strcmp+0x14>
    502033c4:	a025                	j	502033ec <strcmp+0x2e>
    502033c6:	00e79b63          	bne	a5,a4,502033dc <strcmp+0x1e>
    502033ca:	00054703          	lbu	a4,0(a0)
    502033ce:	cb11                	beqz	a4,502033e2 <strcmp+0x24>
    502033d0:	0585                	addi	a1,a1,1
    502033d2:	0005c783          	lbu	a5,0(a1)
    502033d6:	0505                	addi	a0,a0,1
    502033d8:	f7fd                	bnez	a5,502033c6 <strcmp+0x8>
    502033da:	2701                	sext.w	a4,a4
    502033dc:	40f7053b          	subw	a0,a4,a5
    502033e0:	8082                	ret
    502033e2:	0015c783          	lbu	a5,1(a1)
    502033e6:	40f7053b          	subw	a0,a4,a5
    502033ea:	8082                	ret
    502033ec:	0005c783          	lbu	a5,0(a1)
    502033f0:	b7f5                	j	502033dc <strcmp+0x1e>

00000000502033f2 <strncmp>:
    502033f2:	c21d                	beqz	a2,50203418 <strncmp+0x26>
    502033f4:	1602                	slli	a2,a2,0x20
    502033f6:	9201                	srli	a2,a2,0x20
    502033f8:	962a                	add	a2,a2,a0
    502033fa:	a031                	j	50203406 <strncmp+0x14>
    502033fc:	0585                	addi	a1,a1,1
    502033fe:	00e79f63          	bne	a5,a4,5020341c <strncmp+0x2a>
    50203402:	00c50b63          	beq	a0,a2,50203418 <strncmp+0x26>
    50203406:	00054783          	lbu	a5,0(a0)
    5020340a:	0005c703          	lbu	a4,0(a1)
    5020340e:	0505                	addi	a0,a0,1
    50203410:	f7f5                	bnez	a5,502033fc <strncmp+0xa>
    50203412:	4501                	li	a0,0
    50203414:	9d19                	subw	a0,a0,a4
    50203416:	8082                	ret
    50203418:	4501                	li	a0,0
    5020341a:	8082                	ret
    5020341c:	0007851b          	sext.w	a0,a5
    50203420:	9d19                	subw	a0,a0,a4
    50203422:	8082                	ret

0000000050203424 <strcpy>:
    50203424:	0005c783          	lbu	a5,0(a1)
    50203428:	872a                	mv	a4,a0
    5020342a:	cb81                	beqz	a5,5020343a <strcpy+0x16>
    5020342c:	0585                	addi	a1,a1,1
    5020342e:	00f70023          	sb	a5,0(a4)
    50203432:	0005c783          	lbu	a5,0(a1)
    50203436:	0705                	addi	a4,a4,1
    50203438:	fbf5                	bnez	a5,5020342c <strcpy+0x8>
    5020343a:	00070023          	sb	zero,0(a4)
    5020343e:	8082                	ret

0000000050203440 <strncpy>:
    50203440:	0005c683          	lbu	a3,0(a1)
    50203444:	88b2                	mv	a7,a2
    50203446:	87aa                	mv	a5,a0
    50203448:	c685                	beqz	a3,50203470 <strncpy+0x30>
    5020344a:	fff6081b          	addiw	a6,a2,-1
    5020344e:	0105083b          	addw	a6,a0,a6
    50203452:	9e29                	addw	a2,a2,a0
    50203454:	a039                	j	50203462 <strncpy+0x22>
    50203456:	00d78023          	sb	a3,0(a5)
    5020345a:	0005c683          	lbu	a3,0(a1)
    5020345e:	0785                	addi	a5,a5,1
    50203460:	ca81                	beqz	a3,50203470 <strncpy+0x30>
    50203462:	40f6073b          	subw	a4,a2,a5
    50203466:	0585                	addi	a1,a1,1
    50203468:	40f808bb          	subw	a7,a6,a5
    5020346c:	fee045e3          	bgtz	a4,50203456 <strncpy+0x16>
    50203470:	02089713          	slli	a4,a7,0x20
    50203474:	9301                	srli	a4,a4,0x20
    50203476:	973e                	add	a4,a4,a5
    50203478:	01105863          	blez	a7,50203488 <strncpy+0x48>
    5020347c:	0785                	addi	a5,a5,1
    5020347e:	fe078fa3          	sb	zero,-1(a5)
    50203482:	fef71de3          	bne	a4,a5,5020347c <strncpy+0x3c>
    50203486:	8082                	ret
    50203488:	8082                	ret

000000005020348a <strcat>:
    5020348a:	00054783          	lbu	a5,0(a0)
    5020348e:	c39d                	beqz	a5,502034b4 <strcat+0x2a>
    50203490:	87aa                	mv	a5,a0
    50203492:	0017c703          	lbu	a4,1(a5)
    50203496:	0785                	addi	a5,a5,1
    50203498:	ff6d                	bnez	a4,50203492 <strcat+0x8>
    5020349a:	0005c703          	lbu	a4,0(a1)
    5020349e:	cb01                	beqz	a4,502034ae <strcat+0x24>
    502034a0:	0785                	addi	a5,a5,1
    502034a2:	0585                	addi	a1,a1,1
    502034a4:	fee78fa3          	sb	a4,-1(a5)
    502034a8:	0005c703          	lbu	a4,0(a1)
    502034ac:	fb75                	bnez	a4,502034a0 <strcat+0x16>
    502034ae:	00078023          	sb	zero,0(a5)
    502034b2:	8082                	ret
    502034b4:	87aa                	mv	a5,a0
    502034b6:	bfcd                	j	502034a8 <strcat+0x1e>
